                             //
                             // .isr_vector 
                             // SHT_PROGBITS  [0x8000000 - 0x8000187]
                             // ram:08000000-ram:08000187
                             //
             assume spsr = 0x0  (Default)
                             g_pfnVectors                                    XREF[3]:     Entry Point(*), 
                                                                                          _elfProgramHeaders::00000008(*), 
                                                                                          _elfSectionHeaders::00000034(*)  
        08000000 00              undefined1 00h
        08000001 00              ??         00h
        08000002 02              ??         02h
        08000003 20              ??         20h     
        08000004 05 09 00 08     addr       Reset_Handler+1
        08000008 dd 08 00 08     addr       NMI_Handler+1
        0800000c df 08 00 08     addr       HardFault_Handler+1
        08000010 e1 08 00 08     addr       MemManage_Handler+1
        08000014 e3 08 00 08     addr       BusFault_Handler+1
        08000018 e5 08 00 08     addr       UsageFault_Handler+1
        0800001c 00              ??         00h
        0800001d 00              ??         00h
        0800001e 00              ??         00h
        0800001f 00              ??         00h
        08000020 00              ??         00h
        08000021 00              ??         00h
        08000022 00              ??         00h
        08000023 00              ??         00h
        08000024 00              ??         00h
        08000025 00              ??         00h
        08000026 00              ??         00h
        08000027 00              ??         00h
        08000028 00              ??         00h
        08000029 00              ??         00h
        0800002a 00              ??         00h
        0800002b 00              ??         00h
        0800002c e7 08 00 08     addr       SVC_Handler+1
        08000030 e9 08 00 08     addr       DebugMon_Handler+1
        08000034 00              ??         00h
        08000035 00              ??         00h
        08000036 00              ??         00h
        08000037 00              ??         00h
        08000038 eb 08 00 08     addr       PendSV_Handler+1
        0800003c ed 08 00 08     addr       SysTick_Handler+1
        08000040 55 09 00 08     addr       DMA1_Stream3_IRQHandler+1
        08000044 55 09 00 08     addr       DMA1_Stream3_IRQHandler+1
        08000048 55 09 00 08     addr       DMA1_Stream3_IRQHandler+1
        0800004c 55 09 00 08     addr       DMA1_Stream3_IRQHandler+1
        08000050 55 09 00 08     addr       DMA1_Stream3_IRQHandler+1
        08000054 55 09 00 08     addr       DMA1_Stream3_IRQHandler+1
        08000058 55 09 00 08     addr       DMA1_Stream3_IRQHandler+1
        0800005c 55 09 00 08     addr       DMA1_Stream3_IRQHandler+1
        08000060 55 09 00 08     addr       DMA1_Stream3_IRQHandler+1
        08000064 55 09 00 08     addr       DMA1_Stream3_IRQHandler+1
        08000068 55 09 00 08     addr       DMA1_Stream3_IRQHandler+1
        0800006c 55 09 00 08     addr       DMA1_Stream3_IRQHandler+1
        08000070 55 09 00 08     addr       DMA1_Stream3_IRQHandler+1
        08000074 55 09 00 08     addr       DMA1_Stream3_IRQHandler+1
        08000078 55 09 00 08     addr       DMA1_Stream3_IRQHandler+1
        0800007c 55 09 00 08     addr       DMA1_Stream3_IRQHandler+1
        08000080 55 09 00 08     addr       DMA1_Stream3_IRQHandler+1
        08000084 55 09 00 08     addr       DMA1_Stream3_IRQHandler+1
        08000088 55 09 00 08     addr       DMA1_Stream3_IRQHandler+1
        0800008c 55 09 00 08     addr       DMA1_Stream3_IRQHandler+1
        08000090 55 09 00 08     addr       DMA1_Stream3_IRQHandler+1
        08000094 55 09 00 08     addr       DMA1_Stream3_IRQHandler+1
        08000098 55 09 00 08     addr       DMA1_Stream3_IRQHandler+1
        0800009c 55 09 00 08     addr       DMA1_Stream3_IRQHandler+1
        080000a0 55 09 00 08     addr       DMA1_Stream3_IRQHandler+1
        080000a4 55 09 00 08     addr       DMA1_Stream3_IRQHandler+1
        080000a8 55 09 00 08     addr       DMA1_Stream3_IRQHandler+1
        080000ac 55 09 00 08     addr       DMA1_Stream3_IRQHandler+1
        080000b0 55 09 00 08     addr       DMA1_Stream3_IRQHandler+1
        080000b4 55 09 00 08     addr       DMA1_Stream3_IRQHandler+1
        080000b8 55 09 00 08     addr       DMA1_Stream3_IRQHandler+1
        080000bc 55 09 00 08     addr       DMA1_Stream3_IRQHandler+1
        080000c0 55 09 00 08     addr       DMA1_Stream3_IRQHandler+1
        080000c4 55 09 00 08     addr       DMA1_Stream3_IRQHandler+1
        080000c8 55 09 00 08     addr       DMA1_Stream3_IRQHandler+1
        080000cc 55 09 00 08     addr       DMA1_Stream3_IRQHandler+1
        080000d0 55 09 00 08     addr       DMA1_Stream3_IRQHandler+1
        080000d4 55 09 00 08     addr       DMA1_Stream3_IRQHandler+1
        080000d8 55 09 00 08     addr       DMA1_Stream3_IRQHandler+1
        080000dc 55 09 00 08     addr       DMA1_Stream3_IRQHandler+1
        080000e0 55 09 00 08     addr       DMA1_Stream3_IRQHandler+1
        080000e4 55 09 00 08     addr       DMA1_Stream3_IRQHandler+1
        080000e8 55 09 00 08     addr       DMA1_Stream3_IRQHandler+1
        080000ec 55 09 00 08     addr       DMA1_Stream3_IRQHandler+1
        080000f0 55 09 00 08     addr       DMA1_Stream3_IRQHandler+1
        080000f4 55 09 00 08     addr       DMA1_Stream3_IRQHandler+1
        080000f8 55 09 00 08     addr       DMA1_Stream3_IRQHandler+1
        080000fc 55 09 00 08     addr       DMA1_Stream3_IRQHandler+1
        08000100 55 09 00 08     addr       DMA1_Stream3_IRQHandler+1
        08000104 55 09 00 08     addr       DMA1_Stream3_IRQHandler+1
        08000108 55 09 00 08     addr       DMA1_Stream3_IRQHandler+1
        0800010c 55 09 00 08     addr       DMA1_Stream3_IRQHandler+1
        08000110 55 09 00 08     addr       DMA1_Stream3_IRQHandler+1
        08000114 55 09 00 08     addr       DMA1_Stream3_IRQHandler+1
        08000118 55 09 00 08     addr       DMA1_Stream3_IRQHandler+1
        0800011c 55 09 00 08     addr       DMA1_Stream3_IRQHandler+1
        08000120 55 09 00 08     addr       DMA1_Stream3_IRQHandler+1
        08000124 55 09 00 08     addr       DMA1_Stream3_IRQHandler+1
        08000128 55 09 00 08     addr       DMA1_Stream3_IRQHandler+1
        0800012c 55 09 00 08     addr       DMA1_Stream3_IRQHandler+1
        08000130 55 09 00 08     addr       DMA1_Stream3_IRQHandler+1
        08000134 55 09 00 08     addr       DMA1_Stream3_IRQHandler+1
        08000138 55 09 00 08     addr       DMA1_Stream3_IRQHandler+1
        0800013c 55 09 00 08     addr       DMA1_Stream3_IRQHandler+1
        08000140 55 09 00 08     addr       DMA1_Stream3_IRQHandler+1
        08000144 55 09 00 08     addr       DMA1_Stream3_IRQHandler+1
        08000148 55 09 00 08     addr       DMA1_Stream3_IRQHandler+1
        0800014c 55 09 00 08     addr       DMA1_Stream3_IRQHandler+1
        08000150 55 09 00 08     addr       DMA1_Stream3_IRQHandler+1
        08000154 55 09 00 08     addr       DMA1_Stream3_IRQHandler+1
        08000158 55 09 00 08     addr       DMA1_Stream3_IRQHandler+1
        0800015c 55 09 00 08     addr       DMA1_Stream3_IRQHandler+1
        08000160 55 09 00 08     addr       DMA1_Stream3_IRQHandler+1
        08000164 55 09 00 08     addr       DMA1_Stream3_IRQHandler+1
        08000168 55 09 00 08     addr       DMA1_Stream3_IRQHandler+1
        0800016c 55 09 00 08     addr       DMA1_Stream3_IRQHandler+1
        08000170 55 09 00 08     addr       DMA1_Stream3_IRQHandler+1
        08000174 55 09 00 08     addr       DMA1_Stream3_IRQHandler+1
        08000178 55 09 00 08     addr       DMA1_Stream3_IRQHandler+1
        0800017c 00              ??         00h
        0800017d 00              ??         00h
        0800017e 00              ??         00h
        0800017f 00              ??         00h
        08000180 55 09 00 08     addr       DMA1_Stream3_IRQHandler+1
        08000184 55 09 00 08     addr       DMA1_Stream3_IRQHandler+1
                             //
                             // .text 
                             // SHT_PROGBITS  [0x8000188 - 0x8001477]
                             // ram:08000188-ram:08001477
                             //
                             **************************************************************
                             *                          FUNCTION                          *
                             **************************************************************
                             undefined __do_global_dtors_aux()
                               assume LRset = 0x0
                               assume TMode = 0x1
             undefined         <UNASSIGNED>   <RETURN>
                             __do_global_dtors_aux                           XREF[1]:     _elfSectionHeaders::0000005c(*)  
        08000188 10 b5           push       {r4,lr}
        0800018a 05 4c           ldr        r4,[DAT_080001a0]                                = 2000002Ch
        0800018c 23 78           ldrb       r3,[r4,#0x0]=>completed.1                        = ??
        0800018e 33 b9           cbnz       r3,LAB_0800019e
        08000190 04 4b           ldr        r3,[DAT_080001a4]
        08000192 13 b1           cbz        r3,LAB_0800019a
        08000194 04 48           ldr        r0=>_init,[DAT_080001a8]                         = 08001460h
        08000196 af f3 00 80     nop.w
                             LAB_0800019a                                    XREF[1]:     08000192(j)  
        0800019a 01 23           movs       r3,#0x1
        0800019c 23 70           strb       r3,[r4,#0x0]=>completed.1                        = ??
                             LAB_0800019e                                    XREF[1]:     0800018e(j)  
        0800019e 10 bd           pop        {r4,pc}
                             DAT_080001a0                                    XREF[1]:     __do_global_dtors_aux:0800018a(R
        080001a0 2c 00 00 20     undefined4 2000002Ch                                        ?  ->  2000002c
                             DAT_080001a4                                    XREF[1]:     __do_global_dtors_aux:08000190(R
        080001a4 00 00 00 00     undefined4 00000000h
                             DAT_080001a8                                    XREF[1]:     __do_global_dtors_aux:08000194(R
        080001a8 60 14 00 08     undefined4 08001460h                                        ?  ->  08001460
                             **************************************************************
                             *                          FUNCTION                          *
                             **************************************************************
                             undefined frame_dummy()
                               assume LRset = 0x0
                               assume TMode = 0x1
             undefined         <UNASSIGNED>   <RETURN>
                             frame_dummy+1                                   XREF[2,2]:   __libc_init_array:08001440(c), 
                             frame_dummy                                                  __libc_init_array:0800144a(c), 
                                                                                          __libc_init_array:0800143c(*), 
                                                                                          __libc_init_array:08001446(*)  
        080001ac 08 b5           push       {r3,lr}
        080001ae 03 4b           ldr        r3,[DAT_080001bc]
        080001b0 1b b1           cbz        r3,LAB_080001ba
        080001b2 03 49           ldr        r1,[DAT_080001c0]                                = 20000030h
        080001b4 03 48           ldr        r0=>_init,[DAT_080001c4]                         = 08001460h
        080001b6 af f3 00 80     nop.w
                             LAB_080001ba                                    XREF[1]:     080001b0(j)  
        080001ba 08 bd           pop        {r3,pc}
                             DAT_080001bc                                    XREF[1]:     frame_dummy:080001ae(R)  
        080001bc 00 00 00 00     undefined4 00000000h
                             DAT_080001c0                                    XREF[1]:     frame_dummy:080001b2(R)  
        080001c0 30 00 00 20     undefined4 20000030h                                        ?  ->  20000030
                             DAT_080001c4                                    XREF[1]:     frame_dummy:080001b4(R)  
        080001c4 60 14 00 08     undefined4 08001460h                                        ?  ->  08001460
                             **************************************************************
                             *                          FUNCTION                          *
                             **************************************************************
                             undefined __aeabi_uldivmod()
                               assume LRset = 0x0
                               assume TMode = 0x1
             undefined         <UNASSIGNED>   <RETURN>
             undefined4        Stack[-0x8]:4  local_8                                 XREF[1]:     080001f0(R)  
             undefined4        Stack[-0xc]:4  local_c                                 XREF[1]:     080001ec(R)  
             undefined4        Stack[-0x10]:4 local_10                                XREF[1]:     080001e4(W)  
                             __aeabi_uldivmod                                XREF[5]:     Entry Point(*), 
                                                                                          HAL_RCC_GetSysClockFreq:08000ff2
                                                                                          UART_SetConfig:08001254(c), 
                                                                                          UART_SetConfig:08001288(c), 
                                                                                          .debug_frame::00000064(*)  
        080001c8 53 b9           cbnz       r3,LAB_080001e0
        080001ca 4a b9           cbnz       r2,LAB_080001e0
        080001cc 00 29           cmp        r1,#0x0
        080001ce 08 bf           it         eq
        080001d0 00 28           cmp.eq     r0,#0x0
        080001d2 1c bf           itt        ne
        080001d4 4f f0 ff 31     mov.ne.w   r1,#0xffffffff
        080001d8 4f f0 ff 30     mov.ne.w   r0,#0xffffffff
        080001dc 00 f0 6a b9     b.w        __aeabi_idiv0                                    undefined __aeabi_idiv0()
                             -- Flow Override: CALL_RETURN (CALL_TERMINATOR)
                             LAB_080001e0                                    XREF[2]:     080001c8(j), 080001ca(j)  
        080001e0 ad f1 08 0c     sub.w      r12,sp,#0x8
        080001e4 6d e9 04 ce     strd       r12,lr,[sp,#-0x10]!=>local_10
        080001e8 00 f0 06 f8     bl         __udivmoddi4                                     undefined __udivmoddi4()
        080001ec dd f8 04 e0     ldr.w      lr,[sp,#local_c]
        080001f0 dd e9 02 23     ldrd       r2,r3,[sp,#local_8]
        080001f4 04 b0           add        sp,#0x10
        080001f6 70 47           bx         lr
                             **************************************************************
                             *                          FUNCTION                          *
                             **************************************************************
                             undefined __udivmoddi4()
                               assume LRset = 0x0
                               assume TMode = 0x1
             undefined         <UNASSIGNED>   <RETURN>
                             __udivmoddi4                                    XREF[3]:     Entry Point(*), 
                                                                                          __aeabi_uldivmod:080001e8(c), 
                                                                                          .debug_frame::00000090(*)  
        080001f8 2d e9 f0 47     push       {r4,r5,r6,r7,r8,r9,r10,lr}
        080001fc 08 9d           ldr        r5,[sp,#Stack[0x0]]
        080001fe 0c 46           mov        r4,r1
        08000200 00 2b           cmp        r3,#0x0
        08000202 4e d1           bne        LAB_080002a2
        08000204 94 46           mov        r12,r2
        08000206 8c 45           cmp        r12,r1
        08000208 86 46           mov        lr,r0
        0800020a b2 fa 82 f2     clz        r2,r2
        0800020e 62 d9           bls        LAB_080002d6
        08000210 4a b1           cbz        r2,LAB_08000226
        08000212 c2 f1 20 03     rsb.w      r3,r2,#0x20
        08000216 91 40           lsls       r1,r2
        08000218 20 fa 03 f3     lsr.w      r3,r0,r3
        0800021c 0c fa 02 fc     lsl.w      r12,r12,r2
        08000220 19 43           orrs       r1,r3
        08000222 00 fa 02 fe     lsl.w      lr,r0,r2
                             LAB_08000226                                    XREF[1]:     08000210(j)  
        08000226 4f ea 1c 47     lsr.w      r7,r12,#0x10
        0800022a 1f fa 8c f6     uxth.w     r6,r12
        0800022e b1 fb f7 f4     udiv       r4,r1,r7
        08000232 4f ea 1e 43     lsr.w      r3,lr,#0x10
        08000236 07 fb 14 11     mls        r1,r7,r4,r1
        0800023a 43 ea 01 43     orr.w      r3,r3,r1, lsl #0x10
        0800023e 04 fb 06 f1     mul        r1,r4,r6
        08000242 99 42           cmp        r1,r3
        08000244 0a d9           bls        LAB_0800025c
        08000246 1c eb 03 03     adds.w     r3,r12,r3
        0800024a 04 f1 ff 30     add.w      r0,r4,#0xffffffff
        0800024e 80 f0 12 81     bcs.w      LAB_08000476
        08000252 99 42           cmp        r1,r3
        08000254 40 f2 0f 81     bls.w      LAB_08000476
        08000258 02 3c           subs       r4,#0x2
        0800025a 63 44           add        r3,r12
                             LAB_0800025c                                    XREF[2]:     08000244(j), 08000478(j)  
        0800025c 59 1a           subs       r1,r3,r1
        0800025e 1f fa 8e f3     uxth.w     r3,lr
        08000262 b1 fb f7 f0     udiv       r0,r1,r7
        08000266 07 fb 10 11     mls        r1,r7,r0,r1
        0800026a 43 ea 01 43     orr.w      r3,r3,r1, lsl #0x10
        0800026e 00 fb 06 f6     mul        r6,r0,r6
        08000272 9e 42           cmp        r6,r3
        08000274 0a d9           bls        LAB_0800028c
        08000276 1c eb 03 03     adds.w     r3,r12,r3
        0800027a 00 f1 ff 31     add.w      r1,r0,#0xffffffff
        0800027e 80 f0 fc 80     bcs.w      LAB_0800047a
        08000282 9e 42           cmp        r6,r3
        08000284 40 f2 f9 80     bls.w      LAB_0800047a
        08000288 63 44           add        r3,r12
        0800028a 02 38           subs       r0,#0x2
                             LAB_0800028c                                    XREF[2]:     08000274(j), 0800047c(j)  
        0800028c 9b 1b           subs       r3,r3,r6
        0800028e 40 ea 04 40     orr.w      r0,r0,r4, lsl #0x10
        08000292 00 21           movs       r1,#0x0
                             LAB_08000294                                    XREF[1]:     08000346(j)  
        08000294 1d b1           cbz        r5,LAB_0800029e
        08000296 d3 40           lsrs       r3,r2
        08000298 00 22           movs       r2,#0x0
        0800029a c5 e9 00 32     strd       r3,r2,[r5,#0x0]
                             LAB_0800029e                                    XREF[5]:     08000294(j), 080002b0(j), 
                                                                                          080002ce(j), 080002d4(j), 
                                                                                          080003fa(j)  
        0800029e bd e8 f0 87     pop.w      {r4,r5,r6,r7,r8,r9,r10,pc}
                             LAB_080002a2                                    XREF[1]:     08000202(j)  
        080002a2 8b 42           cmp        r3,r1
        080002a4 05 d9           bls        LAB_080002b2
        080002a6 0d b1           cbz        r5,LAB_080002ac
        080002a8 c5 e9 00 01     strd       r0,r1,[r5,#0x0]
                             LAB_080002ac                                    XREF[1]:     080002a6(j)  
        080002ac 00 21           movs       r1,#0x0
        080002ae 08 46           mov        r0,r1
        080002b0 f5 e7           b          LAB_0800029e
                             LAB_080002b2                                    XREF[1]:     080002a4(j)  
        080002b2 b3 fa 83 f1     clz        r1,r3
        080002b6 00 29           cmp        r1,#0x0
        080002b8 46 d1           bne        LAB_08000348
        080002ba a3 42           cmp        r3,r4
        080002bc 02 d3           bcc        LAB_080002c4
        080002be 90 42           cmp        r0,r2
        080002c0 c0 f0 f0 80     bcc.w      LAB_080004a4
                             LAB_080002c4                                    XREF[1]:     080002bc(j)  
        080002c4 86 1a           subs       r6,r0,r2
        080002c6 64 eb 03 03     sbc.w      r3,r4,r3
        080002ca 01 20           movs       r0,#0x1
                             LAB_080002cc                                    XREF[1]:     080004aa(j)  
        080002cc 00 2d           cmp        r5,#0x0
        080002ce e6 d0           beq        LAB_0800029e
        080002d0 c5 e9 00 63     strd       r6,r3,[r5,#0x0]
        080002d4 e3 e7           b          LAB_0800029e
                             LAB_080002d6                                    XREF[1]:     0800020e(j)  
        080002d6 00 2a           cmp        r2,#0x0
        080002d8 40 f0 90 80     bne.w      LAB_080003fc
        080002dc a1 eb 0c 04     sub.w      r4,r1,r12
        080002e0 4f ea 1c 48     lsr.w      r8,r12,#0x10
        080002e4 1f fa 8c f7     uxth.w     r7,r12
        080002e8 01 21           movs       r1,#0x1
                             LAB_080002ea                                    XREF[1]:     08000474(j)  
        080002ea b4 fb f8 f6     udiv       r6,r4,r8
        080002ee 4f ea 1e 43     lsr.w      r3,lr,#0x10
        080002f2 08 fb 16 44     mls        r4,r8,r6,r4
        080002f6 43 ea 04 43     orr.w      r3,r3,r4, lsl #0x10
        080002fa 07 fb 06 f0     mul        r0,r7,r6
        080002fe 98 42           cmp        r0,r3
        08000300 08 d9           bls        LAB_08000314
        08000302 1c eb 03 03     adds.w     r3,r12,r3
        08000306 06 f1 ff 34     add.w      r4,r6,#0xffffffff
        0800030a 02 d2           bcs        LAB_08000312
        0800030c 98 42           cmp        r0,r3
        0800030e 00 f2 cd 80     bhi.w      LAB_080004ac
                             LAB_08000312                                    XREF[1]:     0800030a(j)  
        08000312 26 46           mov        r6,r4
                             LAB_08000314                                    XREF[2]:     08000300(j), 080004b0(j)  
        08000314 1c 1a           subs       r4,r3,r0
        08000316 1f fa 8e f3     uxth.w     r3,lr
        0800031a b4 fb f8 f0     udiv       r0,r4,r8
        0800031e 08 fb 10 44     mls        r4,r8,r0,r4
        08000322 43 ea 04 43     orr.w      r3,r3,r4, lsl #0x10
        08000326 00 fb 07 f7     mul        r7,r0,r7
        0800032a 9f 42           cmp        r7,r3
        0800032c 08 d9           bls        LAB_08000340
        0800032e 1c eb 03 03     adds.w     r3,r12,r3
        08000332 00 f1 ff 34     add.w      r4,r0,#0xffffffff
        08000336 02 d2           bcs        LAB_0800033e
        08000338 9f 42           cmp        r7,r3
        0800033a 00 f2 b0 80     bhi.w      LAB_0800049e
                             LAB_0800033e                                    XREF[1]:     08000336(j)  
        0800033e 20 46           mov        r0,r4
                             LAB_08000340                                    XREF[2]:     0800032c(j), 080004a2(j)  
        08000340 db 1b           subs       r3,r3,r7
        08000342 40 ea 06 40     orr.w      r0,r0,r6, lsl #0x10
        08000346 a5 e7           b          LAB_08000294
                             LAB_08000348                                    XREF[1]:     080002b8(j)  
        08000348 c1 f1 20 06     rsb.w      r6,r1,#0x20
        0800034c 8b 40           lsls       r3,r1
        0800034e 22 fa 06 f7     lsr.w      r7,r2,r6
        08000352 1f 43           orrs       r7,r3
        08000354 20 fa 06 fc     lsr.w      r12,r0,r6
        08000358 04 fa 01 f3     lsl.w      r3,r4,r1
        0800035c 43 ea 0c 03     orr.w      r3,r3,r12
        08000360 f4 40           lsrs       r4,r6
        08000362 00 fa 01 f8     lsl.w      r8,r0,r1
        08000366 38 0c           lsrs       r0,r7,#0x10
        08000368 4f ea 13 49     lsr.w      r9,r3,#0x10
        0800036c b4 fb f0 fe     udiv       lr,r4,r0
        08000370 1f fa 87 fc     uxth.w     r12,r7
        08000374 00 fb 1e 44     mls        r4,r0,lr,r4
        08000378 49 ea 04 44     orr.w      r4,r9,r4, lsl #0x10
        0800037c 0e fb 0c f9     mul        r9,lr,r12
        08000380 a1 45           cmp        r9,r4
        08000382 02 fa 01 f2     lsl.w      r2,r2,r1
        08000386 0a d9           bls        LAB_0800039e
        08000388 3c 19           adds       r4,r7,r4
        0800038a 0e f1 ff 3a     add.w      r10,lr,#0xffffffff
        0800038e 80 f0 84 80     bcs.w      LAB_0800049a
        08000392 a1 45           cmp        r9,r4
        08000394 40 f2 81 80     bls.w      LAB_0800049a
        08000398 ae f1 02 0e     sub.w      lr,lr,#0x2
        0800039c 3c 44           add        r4,r7
                             LAB_0800039e                                    XREF[2]:     08000386(j), 0800049c(j)  
        0800039e a4 eb 09 04     sub.w      r4,r4,r9
        080003a2 1f fa 83 f9     uxth.w     r9,r3
        080003a6 b4 fb f0 f3     udiv       r3,r4,r0
        080003aa 00 fb 13 44     mls        r4,r0,r3,r4
        080003ae 49 ea 04 44     orr.w      r4,r9,r4, lsl #0x10
        080003b2 03 fb 0c fc     mul        r12,r3,r12
        080003b6 a4 45           cmp        r12,r4
        080003b8 07 d9           bls        LAB_080003ca
        080003ba 3c 19           adds       r4,r7,r4
        080003bc 03 f1 ff 30     add.w      r0,r3,#0xffffffff
        080003c0 67 d2           bcs        LAB_08000492
        080003c2 a4 45           cmp        r12,r4
        080003c4 65 d9           bls        LAB_08000492
        080003c6 02 3b           subs       r3,#0x2
        080003c8 3c 44           add        r4,r7
                             LAB_080003ca                                    XREF[2]:     080003b8(j), 08000494(j)  
        080003ca 43 ea 0e 40     orr.w      r0,r3,lr, lsl #0x10
        080003ce a0 fb 02 93     umull      r9,r3,r0,r2
        080003d2 a4 eb 0c 04     sub.w      r4,r4,r12
        080003d6 9c 42           cmp        r4,r3
        080003d8 ce 46           mov        lr,r9
        080003da 9c 46           mov        r12,r3
        080003dc 51 d3           bcc        LAB_08000482
        080003de 4e d0           beq        LAB_0800047e
                             LAB_080003e0                                    XREF[2]:     08000480(j), 0800048c(j)  
        080003e0 55 b1           cbz        r5,LAB_080003f8
        080003e2 b8 eb 0e 03     subs.w     r3,r8,lr
        080003e6 64 eb 0c 04     sbc.w      r4,r4,r12
        080003ea 04 fa 06 f6     lsl.w      r6,r4,r6
        080003ee cb 40           lsrs       r3,r1
        080003f0 1e 43           orrs       r6,r3
        080003f2 cc 40           lsrs       r4,r1
        080003f4 c5 e9 00 64     strd       r6,r4,[r5,#0x0]
                             LAB_080003f8                                    XREF[1]:     080003e0(j)  
        080003f8 00 21           movs       r1,#0x0
        080003fa 50 e7           b          LAB_0800029e
                             LAB_080003fc                                    XREF[1]:     080002d8(j)  
        080003fc c2 f1 20 03     rsb.w      r3,r2,#0x20
        08000400 20 fa 03 f1     lsr.w      r1,r0,r3
        08000404 0c fa 02 fc     lsl.w      r12,r12,r2
        08000408 24 fa 03 f3     lsr.w      r3,r4,r3
        0800040c 94 40           lsls       r4,r2
        0800040e 0c 43           orrs       r4,r1
        08000410 4f ea 1c 48     lsr.w      r8,r12,#0x10
        08000414 00 fa 02 fe     lsl.w      lr,r0,r2
        08000418 1f fa 8c f7     uxth.w     r7,r12
        0800041c b3 fb f8 f0     udiv       r0,r3,r8
        08000420 08 fb 10 31     mls        r1,r8,r0,r3
        08000424 23 0c           lsrs       r3,r4,#0x10
        08000426 43 ea 01 43     orr.w      r3,r3,r1, lsl #0x10
        0800042a 00 fb 07 f1     mul        r1,r0,r7
        0800042e 99 42           cmp        r1,r3
        08000430 08 d9           bls        LAB_08000444
        08000432 1c eb 03 03     adds.w     r3,r12,r3
        08000436 00 f1 ff 36     add.w      r6,r0,#0xffffffff
        0800043a 2c d2           bcs        LAB_08000496
        0800043c 99 42           cmp        r1,r3
        0800043e 2a d9           bls        LAB_08000496
        08000440 02 38           subs       r0,#0x2
        08000442 63 44           add        r3,r12
                             LAB_08000444                                    XREF[2]:     08000430(j), 08000498(j)  
        08000444 5b 1a           subs       r3,r3,r1
        08000446 a4 b2           uxth       r4,r4
        08000448 b3 fb f8 f1     udiv       r1,r3,r8
        0800044c 08 fb 11 33     mls        r3,r8,r1,r3
        08000450 44 ea 03 44     orr.w      r4,r4,r3, lsl #0x10
        08000454 01 fb 07 f3     mul        r3,r1,r7
        08000458 a3 42           cmp        r3,r4
        0800045a 08 d9           bls        LAB_0800046e
        0800045c 1c eb 04 04     adds.w     r4,r12,r4
        08000460 01 f1 ff 36     add.w      r6,r1,#0xffffffff
        08000464 13 d2           bcs        LAB_0800048e
        08000466 a3 42           cmp        r3,r4
        08000468 11 d9           bls        LAB_0800048e
        0800046a 02 39           subs       r1,#0x2
        0800046c 64 44           add        r4,r12
                             LAB_0800046e                                    XREF[2]:     0800045a(j), 08000490(j)  
        0800046e e4 1a           subs       r4,r4,r3
        08000470 41 ea 00 41     orr.w      r1,r1,r0, lsl #0x10
        08000474 39 e7           b          LAB_080002ea
                             LAB_08000476                                    XREF[2]:     0800024e(j), 08000254(j)  
        08000476 04 46           mov        r4,r0
        08000478 f0 e6           b          LAB_0800025c
                             LAB_0800047a                                    XREF[2]:     0800027e(j), 08000284(j)  
        0800047a 08 46           mov        r0,r1
        0800047c 06 e7           b          LAB_0800028c
                             LAB_0800047e                                    XREF[1]:     080003de(j)  
        0800047e c8 45           cmp        r8,r9
        08000480 ae d2           bcs        LAB_080003e0
                             LAB_08000482                                    XREF[1]:     080003dc(j)  
        08000482 b9 eb 02 0e     subs.w     lr,r9,r2
        08000486 63 eb 07 0c     sbc.w      r12,r3,r7
        0800048a 01 38           subs       r0,#0x1
        0800048c a8 e7           b          LAB_080003e0
                             LAB_0800048e                                    XREF[2]:     08000464(j), 08000468(j)  
        0800048e 31 46           mov        r1,r6
        08000490 ed e7           b          LAB_0800046e
                             LAB_08000492                                    XREF[2]:     080003c0(j), 080003c4(j)  
        08000492 03 46           mov        r3,r0
        08000494 99 e7           b          LAB_080003ca
                             LAB_08000496                                    XREF[2]:     0800043a(j), 0800043e(j)  
        08000496 30 46           mov        r0,r6
        08000498 d4 e7           b          LAB_08000444
                             LAB_0800049a                                    XREF[2]:     0800038e(j), 08000394(j)  
        0800049a d6 46           mov        lr,r10
        0800049c 7f e7           b          LAB_0800039e
                             LAB_0800049e                                    XREF[1]:     0800033a(j)  
        0800049e 63 44           add        r3,r12
        080004a0 02 38           subs       r0,#0x2
        080004a2 4d e7           b          LAB_08000340
                             LAB_080004a4                                    XREF[1]:     080002c0(j)  
        080004a4 06 46           mov        r6,r0
        080004a6 23 46           mov        r3,r4
        080004a8 08 46           mov        r0,r1
        080004aa 0f e7           b          LAB_080002cc
                             LAB_080004ac                                    XREF[1]:     0800030e(j)  
        080004ac 02 3e           subs       r6,#0x2
        080004ae 63 44           add        r3,r12
        080004b0 30 e7           b          LAB_08000314
        080004b2 00              ??         00h
        080004b3 bf              ??         BFh
                             **************************************************************
                             *                          FUNCTION                          *
                             **************************************************************
                             undefined __aeabi_idiv0()
                               assume LRset = 0x0
                               assume TMode = 0x1
             undefined         <UNASSIGNED>   <RETURN>
                             __aeabi_ldiv0                                   XREF[2]:     Entry Point(*), 
                             __aeabi_idiv0                                                __aeabi_uldivmod:080001dc(c)  
        080004b4 70 47           bx         lr
        080004b6 00              ??         00h
        080004b7 bf              ??         BFh
                             **************************************************************
                             *                          FUNCTION                          *
                             **************************************************************
                             undefined SystemClock_Config()
                               assume LRset = 0x0
                               assume TMode = 0x1
             undefined         <UNASSIGNED>   <RETURN>
             undefined4        Stack[-0x10]:4 local_10                                XREF[1]:     0800051e(W)  
             undefined4        Stack[-0x18]:4 local_18                                XREF[1]:     08000506(W)  
             undefined4        Stack[-0x20]:4 local_20                                XREF[1]:     080004fc(W)  
             undefined4        Stack[-0x2c]:4 local_2c                                XREF[1]:     0800051a(W)  
             undefined4        Stack[-0x38]:4 local_38                                XREF[1]:     0800050e(W)  
             undefined4        Stack[-0x40]:4 local_40                                XREF[1]:     08000540(W)  
             undefined4        Stack[-0x44]:4 local_44                                XREF[1]:     08000534(W)  
             undefined4        Stack[-0x4c]:4 local_4c                                XREF[1]:     08000530(W)  
             undefined4        Stack[-0x50]:4 local_50                                XREF[3]:     080004ea(W), 
                                                                                                   08000500(W), 
                                                                                                   0800050c(R)  
             undefined4        Stack[-0x54]:4 local_54                                XREF[3]:     080004d4(W), 
                                                                                                   080004e4(W), 
                                                                                                   080004e6(R)  
                             SystemClock_Config                              XREF[2]:     Entry Point(*), main:08000566(c)  
        080004b8 10 b5           push       {r4,lr}
        080004ba 94 b0           sub        sp,#0x50
        080004bc 14 22           movs       r2,#0x14
        080004be 00 21           movs       r1,#0x0
        080004c0 09 a8           add        r0,sp,#0x24
        080004c2 00 f0 a0 ff     bl         memset                                           void * memset(void * __s, int __
        080004c6 14 22           movs       r2,#0x14
        080004c8 00 21           movs       r1,#0x0
        080004ca 03 a8           add        r0,sp,#0xc
        080004cc 00 f0 9b ff     bl         memset                                           void * memset(void * __s, int __
        080004d0 00 23           movs       r3,#0x0
        080004d2 20 4a           ldr        r2,[DAT_08000554]                                = 40023800h
        080004d4 01 93           str        r3,[sp,#local_54]
        080004d6 11 6c           ldr        r1,[r2,#0x40]=>DAT_40023840
        080004d8 41 f0 80 51     orr        r1,r1,#0x10000000
        080004dc 11 64           str        r1,[r2,#0x40]=>DAT_40023840
        080004de 12 6c           ldr        r2,[r2,#0x40]=>DAT_40023840
        080004e0 02 f0 80 52     and        r2,r2,#0x10000000
        080004e4 01 92           str        r2,[sp,#local_54]
        080004e6 01 9a           ldr        r2,[sp,#local_54]
        080004e8 1b 4a           ldr        r2,[DAT_08000558]                                = 40007000h
        080004ea 02 93           str        r3,[sp,#local_50]
        080004ec 11 68           ldr        r1,[r2,#0x0]=>DAT_40007000
        080004ee 41 f4 80 41     orr        r1,r1,#0x4000
        080004f2 11 60           str        r1,[r2,#0x0]=>DAT_40007000
        080004f4 12 68           ldr        r2,[r2,#0x0]=>DAT_40007000
        080004f6 02 24           movs       r4,#0x2
        080004f8 02 f4 80 42     and        r2,r2,#0x4000
        080004fc cd e9 0e 43     strd       r4,r3,[sp,#local_20]
        08000500 02 92           str        r2,[sp,#local_50]
        08000502 08 20           movs       r0,#0x8
        08000504 32 23           movs       r3,#0x32
        08000506 cd e9 10 03     strd       r0,r3,[sp,#local_18]
        0800050a 01 21           movs       r1,#0x1
        0800050c 02 9a           ldr        r2,[sp,#local_50]
        0800050e 08 94           str        r4,[sp,#local_38]
        08000510 10 22           movs       r2,#0x10
        08000512 4f f0 04 0c     mov.w      r12,#0x4
        08000516 07 23           movs       r3,#0x7
        08000518 08 a8           add        r0,sp,#0x20
        0800051a cd e9 0b 12     strd       r1,r2,[sp,#local_2c]
        0800051e cd e9 12 c3     strd       r12,r3,[sp,#local_10]
        08000522 00 f0 9f fb     bl         HAL_RCC_OscConfig                                undefined HAL_RCC_OscConfig()
        08000526 01 46           mov        r1,r0
        08000528 08 b1           cbz        r0,LAB_0800052e
        0800052a 72 b6           cpsid      i
                             LAB_0800052c                                    XREF[1]:     0800052c(j)  
        0800052c fe e7           b          LAB_0800052c
                             LAB_0800052e                                    XREF[1]:     08000528(j)  
        0800052e 0f 23           movs       r3,#0xf
        08000530 cd e9 03 34     strd       r3,r4,[sp,#local_4c]
        08000534 05 90           str        r0,[sp,#local_44]
        08000536 4f f4 a0 52     mov.w      r2,#0x1400
        0800053a 4f f4 80 53     mov.w      r3,#0x1000
        0800053e 03 a8           add        r0,sp,#0xc
        08000540 cd e9 06 23     strd       r2,r3,[sp,#local_40]
        08000544 00 f0 6a fd     bl         HAL_RCC_ClockConfig                              undefined HAL_RCC_ClockConfig()
        08000548 08 b1           cbz        r0,LAB_0800054e
        0800054a 72 b6           cpsid      i
                             LAB_0800054c                                    XREF[1]:     0800054c(j)  
        0800054c fe e7           b          LAB_0800054c
                             LAB_0800054e                                    XREF[1]:     08000548(j)  
        0800054e 14 b0           add        sp,#0x50
        08000550 10 bd           pop        {r4,pc}
        08000552 00              ??         00h
        08000553 bf              ??         BFh
                             DAT_08000554                                    XREF[1]:     SystemClock_Config:080004d2(R)  
        08000554 00 38 02 40     undefined4 40023800h
                             DAT_08000558                                    XREF[1]:     SystemClock_Config:080004e8(R)  
        08000558 00 70 00 40     undefined4 40007000h
                             **************************************************************
                             *                          FUNCTION                          *
                             **************************************************************
                             undefined main()
                               assume LRset = 0x0
                               assume TMode = 0x1
             undefined         <UNASSIGNED>   <RETURN>
             undefined4        Stack[-0x24]:4 local_24                                XREF[6]:     08000650(W), 
                                                                                                   0800066a(W), 
                                                                                                   08000692(W), 
                                                                                                   080006be(W), 
                                                                                                   080006ea(W), 
                                                                                                   08000712(W)  
             undefined4        Stack[-0x2c]:4 local_2c                                XREF[13]:    0800061c(W), 
                                                                                                   0800062c(W), 
                                                                                                   0800065a(W), 
                                                                                                   08000674(W), 
                                                                                                   08000680(W), 
                                                                                                   0800069c(W), 
                                                                                                   080006b0(W), 
                                                                                                   080006c8(W), 
                                                                                                   080006d6(W), 
                                                                                                   080006f2(W), 
                                                                                                   080006fe(W), 
                                                                                                   0800071a(W), 
                                                                                                   080007c8(W)  
             undefined4        Stack[-0x30]:4 local_30                                XREF[2]:     08000640(W), 
                                                                                                   0800072e(W)  
             undefined4        Stack[-0x34]:4 local_34                                XREF[15]:    08000618(W), 
                                                                                                   08000628(W), 
                                                                                                   0800063a(W), 
                                                                                                   08000656(W), 
                                                                                                   08000670(W), 
                                                                                                   08000684(W), 
                                                                                                   08000698(W), 
                                                                                                   080006ac(W), 
                                                                                                   080006c4(W), 
                                                                                                   080006da(W), 
                                                                                                   080006ee(W), 
                                                                                                   08000702(W), 
                                                                                                   08000716(W), 
                                                                                                   08000728(W), 
                                                                                                   080007c4(W)  
             undefined4        Stack[-0x38]:4 local_38                                XREF[3]:     080005de(W), 
                                                                                                   080005f0(W), 
                                                                                                   080005f4(R)  
             undefined4        Stack[-0x3c]:4 local_3c                                XREF[3]:     080005ca(W), 
                                                                                                   080005da(W), 
                                                                                                   080005dc(R)  
             undefined4        Stack[-0x40]:4 local_40                                XREF[3]:     080005b6(W), 
                                                                                                   080005c6(W), 
                                                                                                   080005c8(R)  
             undefined4        Stack[-0x44]:4 local_44                                XREF[3]:     080005a2(W), 
                                                                                                   080005b2(W), 
                                                                                                   080005b4(R)  
             undefined4        Stack[-0x48]:4 local_48                                XREF[3]:     0800058e(W), 
                                                                                                   0800059e(W), 
                                                                                                   080005a0(R)  
             undefined4        Stack[-0x4c]:4 local_4c                                XREF[3]:     08000578(W), 
                                                                                                   0800058a(W), 
                                                                                                   0800058c(R)  
                             main                                            XREF[2]:     Entry Point(*), 
                                                                                          Reset_Handler:08000936(c)  
        0800055c 2d e9 f0 43     push       {r4,r5,r6,r7,r8,r9,lr}
        08000560 8d b0           sub        sp,#0x34
        08000562 00 f0 1d fa     bl         HAL_Init                                         undefined HAL_Init()
        08000566 ff f7 a7 ff     bl         SystemClock_Config                               undefined SystemClock_Config()
        0800056a 14 22           movs       r2,#0x14
        0800056c 00 21           movs       r1,#0x0
        0800056e 07 a8           add        r0,sp,#0x1c
        08000570 00 f0 49 ff     bl         memset                                           void * memset(void * __s, int __
        08000574 00 24           movs       r4,#0x0
        08000576 9a 4b           ldr        r3,[DAT_080007e0]                                = 40023800h
        08000578 01 94           str        r4,[sp,#local_4c]
        0800057a 1a 6b           ldr        r2,[r3,#0x30]=>DAT_40023830
        0800057c 99 48           ldr        r0,[DAT_080007e4]                                = 40021000h
        0800057e 42 f0 10 02     orr        r2,r2,#0x10
        08000582 1a 63           str        r2,[r3,#0x30]=>DAT_40023830
        08000584 1a 6b           ldr        r2,[r3,#0x30]=>DAT_40023830
        08000586 02 f0 10 02     and        r2,r2,#0x10
        0800058a 01 92           str        r2,[sp,#local_4c]
        0800058c 01 9a           ldr        r2,[sp,#local_4c]
        0800058e 02 94           str        r4,[sp,#local_48]
        08000590 1a 6b           ldr        r2,[r3,#0x30]=>DAT_40023830
        08000592 42 f0 04 02     orr        r2,r2,#0x4
        08000596 1a 63           str        r2,[r3,#0x30]=>DAT_40023830
        08000598 1a 6b           ldr        r2,[r3,#0x30]=>DAT_40023830
        0800059a 02 f0 04 02     and        r2,r2,#0x4
        0800059e 02 92           str        r2,[sp,#local_48]
        080005a0 02 9a           ldr        r2,[sp,#local_48]
        080005a2 03 94           str        r4,[sp,#local_44]
        080005a4 1a 6b           ldr        r2,[r3,#0x30]=>DAT_40023830
        080005a6 42 f0 80 02     orr        r2,r2,#0x80
        080005aa 1a 63           str        r2,[r3,#0x30]=>DAT_40023830
        080005ac 1a 6b           ldr        r2,[r3,#0x30]=>DAT_40023830
        080005ae 02 f0 80 02     and        r2,r2,#0x80
        080005b2 03 92           str        r2,[sp,#local_44]
        080005b4 03 9a           ldr        r2,[sp,#local_44]
        080005b6 04 94           str        r4,[sp,#local_40]
        080005b8 1a 6b           ldr        r2,[r3,#0x30]=>DAT_40023830
        080005ba 42 f0 01 02     orr        r2,r2,#0x1
        080005be 1a 63           str        r2,[r3,#0x30]=>DAT_40023830
        080005c0 1a 6b           ldr        r2,[r3,#0x30]=>DAT_40023830
        080005c2 02 f0 01 02     and        r2,r2,#0x1
        080005c6 04 92           str        r2,[sp,#local_40]
        080005c8 04 9a           ldr        r2,[sp,#local_40]
        080005ca 05 94           str        r4,[sp,#local_3c]
        080005cc 1a 6b           ldr        r2,[r3,#0x30]=>DAT_40023830
        080005ce 42 f0 02 02     orr        r2,r2,#0x2
        080005d2 1a 63           str        r2,[r3,#0x30]=>DAT_40023830
        080005d4 1a 6b           ldr        r2,[r3,#0x30]=>DAT_40023830
        080005d6 02 f0 02 02     and        r2,r2,#0x2
        080005da 05 92           str        r2,[sp,#local_3c]
        080005dc 05 9a           ldr        r2,[sp,#local_3c]
        080005de 06 94           str        r4,[sp,#local_38]
        080005e0 1a 6b           ldr        r2,[r3,#0x30]=>DAT_40023830
        080005e2 42 f0 08 02     orr        r2,r2,#0x8
        080005e6 1a 63           str        r2,[r3,#0x30]=>DAT_40023830
        080005e8 1b 6b           ldr        r3,[r3,#0x30]=>DAT_40023830
        080005ea 03 f0 08 03     and        r3,r3,#0x8
        080005ee 22 46           mov        r2,r4
        080005f0 06 93           str        r3,[sp,#local_38]
        080005f2 08 21           movs       r1,#0x8
        080005f4 06 9b           ldr        r3,[sp,#local_38]
        080005f6 00 f0 2f fb     bl         HAL_GPIO_WritePin                                undefined HAL_GPIO_WritePin()
        080005fa 01 22           movs       r2,#0x1
        080005fc 11 46           mov        r1,r2
        080005fe 7a 48           ldr        r0,[DAT_080007e8]                                = 40020800h
        08000600 00 f0 2a fb     bl         HAL_GPIO_WritePin                                undefined HAL_GPIO_WritePin()
        08000604 22 46           mov        r2,r4
        08000606 79 48           ldr        r0,[DAT_080007ec]                                = 40020C00h
        08000608 4f f2 10 01     movw       r1,#0xf010
        0800060c 00 f0 24 fb     bl         HAL_GPIO_WritePin                                undefined HAL_GPIO_WritePin()
        08000610 01 26           movs       r6,#0x1
        08000612 08 23           movs       r3,#0x8
        08000614 73 48           ldr        r0,[DAT_080007e4]                                = 40021000h
        08000616 07 a9           add        r1,sp,#0x1c
        08000618 cd e9 07 36     strd       r3,r6,[sp,#local_34]
        0800061c cd e9 09 44     strd       r4,r4,[sp,#local_2c]
        08000620 00 f0 42 fa     bl         HAL_GPIO_Init                                    undefined HAL_GPIO_Init()
        08000624 70 48           ldr        r0,[DAT_080007e8]                                = 40020800h
        08000626 07 a9           add        r1,sp,#0x1c
        08000628 cd e9 07 66     strd       r6,r6,[sp,#local_34]
        0800062c cd e9 09 44     strd       r4,r4,[sp,#local_2c]
        08000630 00 f0 3a fa     bl         HAL_GPIO_Init                                    undefined HAL_GPIO_Init()
        08000634 4f f4 88 13     mov.w      r3,#0x110000
        08000638 6d 48           ldr        r0,[DAT_080007f0]                                = 40020000h
        0800063a 07 96           str        r6,[sp,#local_34]
        0800063c 07 a9           add        r1,sp,#0x1c
        0800063e 02 25           movs       r5,#0x2
        08000640 cd e9 08 34     strd       r3,r4,[sp,#local_30]
        08000644 4f f0 06 08     mov.w      r8,#0x6
        08000648 00 f0 2e fa     bl         HAL_GPIO_Init                                    undefined HAL_GPIO_Init()
        0800064c 10 23           movs       r3,#0x10
        0800064e 68 48           ldr        r0,[DAT_080007f0]                                = 40020000h
        08000650 cd f8 2c 80     str.w      r8,[sp,#local_24]
        08000654 07 a9           add        r1,sp,#0x1c
        08000656 cd e9 07 35     strd       r3,r5,[sp,#local_34]
        0800065a cd e9 09 44     strd       r4,r4,[sp,#local_2c]
        0800065e 4f f0 05 09     mov.w      r9,#0x5
        08000662 00 f0 21 fa     bl         HAL_GPIO_Init                                    undefined HAL_GPIO_Init()
        08000666 e0 23           movs       r3,#0xe0
        08000668 61 48           ldr        r0,[DAT_080007f0]                                = 40020000h
        0800066a cd f8 2c 90     str.w      r9,[sp,#local_24]
        0800066e 07 a9           add        r1,sp,#0x1c
        08000670 cd e9 07 35     strd       r3,r5,[sp,#local_34]
        08000674 cd e9 09 44     strd       r4,r4,[sp,#local_2c]
        08000678 04 27           movs       r7,#0x4
        0800067a 00 f0 15 fa     bl         HAL_GPIO_Init                                    undefined HAL_GPIO_Init()
        0800067e 5d 48           ldr        r0,[DAT_080007f4]                                = 40020400h
        08000680 09 94           str        r4,[sp,#local_2c]
        08000682 07 a9           add        r1,sp,#0x1c
        08000684 cd e9 07 74     strd       r7,r4,[sp,#local_34]
        08000688 00 f0 0e fa     bl         HAL_GPIO_Init                                    undefined HAL_GPIO_Init()
        0800068c 4f f4 80 63     mov.w      r3=>_Min_Stack_Size,#0x400
        08000690 58 48           ldr        r0,[DAT_080007f4]                                = 40020400h
        08000692 cd f8 2c 90     str.w      r9,[sp,#local_24]
        08000696 07 a9           add        r1,sp,#0x1c
        08000698 cd e9 07 35     strd       r3=>_Min_Stack_Size,r5,[sp,#local_34]
        0800069c cd e9 09 44     strd       r4,r4,[sp,#local_2c]
        080006a0 00 f0 02 fa     bl         HAL_GPIO_Init                                    undefined HAL_GPIO_Init()
        080006a4 4f f2 10 03     movw       r3,#0xf010
        080006a8 50 48           ldr        r0,[DAT_080007ec]                                = 40020C00h
        080006aa 07 a9           add        r1,sp,#0x1c
        080006ac cd e9 07 36     strd       r3,r6,[sp,#local_34]
        080006b0 cd e9 09 44     strd       r4,r4,[sp,#local_2c]
        080006b4 00 f0 f8 f9     bl         HAL_GPIO_Init                                    undefined HAL_GPIO_Init()
        080006b8 4f f4 84 53     mov.w      r3,#0x1080
        080006bc 4a 48           ldr        r0,[DAT_080007e8]                                = 40020800h
        080006be cd f8 2c 80     str.w      r8,[sp,#local_24]
        080006c2 07 a9           add        r1,sp,#0x1c
        080006c4 cd e9 07 35     strd       r3,r5,[sp,#local_34]
        080006c8 cd e9 09 44     strd       r4,r4,[sp,#local_2c]
        080006cc 00 f0 ec f9     bl         HAL_GPIO_Init                                    undefined HAL_GPIO_Init()
        080006d0 4f f4 00 73     mov.w      r3,#0x200
        080006d4 46 48           ldr        r0,[DAT_080007f0]                                = 40020000h
        080006d6 09 94           str        r4,[sp,#local_2c]
        080006d8 07 a9           add        r1,sp,#0x1c
        080006da cd e9 07 34     strd       r3,r4,[sp,#local_34]
        080006de 0a 26           movs       r6,#0xa
        080006e0 00 f0 e2 f9     bl         HAL_GPIO_Init                                    undefined HAL_GPIO_Init()
        080006e4 4f f4 e0 53     mov.w      r3,#0x1c00
        080006e8 41 48           ldr        r0,[DAT_080007f0]                                = 40020000h
        080006ea 0b 96           str        r6,[sp,#local_24]
        080006ec 07 a9           add        r1,sp,#0x1c
        080006ee cd e9 07 35     strd       r3,r5,[sp,#local_34]
        080006f2 cd e9 09 44     strd       r4,r4,[sp,#local_2c]
        080006f6 00 f0 d7 f9     bl         HAL_GPIO_Init                                    undefined HAL_GPIO_Init()
        080006fa 20 23           movs       r3,#0x20
        080006fc 3b 48           ldr        r0,[DAT_080007ec]                                = 40020C00h
        080006fe 09 94           str        r4,[sp,#local_2c]
        08000700 07 a9           add        r1,sp,#0x1c
        08000702 cd e9 07 34     strd       r3,r4,[sp,#local_34]
        08000706 00 f0 cf f9     bl         HAL_GPIO_Init                                    undefined HAL_GPIO_Init()
        0800070a 4f f4 10 72     mov.w      r2,#0x240
        0800070e 12 23           movs       r3,#0x12
        08000710 38 48           ldr        r0,[DAT_080007f4]                                = 40020400h
        08000712 0b 97           str        r7,[sp,#local_24]
        08000714 07 a9           add        r1,sp,#0x1c
        08000716 cd e9 07 23     strd       r2,r3,[sp,#local_34]
        0800071a cd e9 09 44     strd       r4,r4,[sp,#local_2c]
        0800071e 00 f0 c3 f9     bl         HAL_GPIO_Init                                    undefined HAL_GPIO_Init()
        08000722 4f f4 90 13     mov.w      r3,#0x120000
        08000726 2f 48           ldr        r0,[DAT_080007e4]                                = 40021000h
        08000728 07 95           str        r5,[sp,#local_34]
        0800072a 07 a9           add        r1,sp,#0x1c
        0800072c 32 4d           ldr        r5,[DAT_080007f8]                                = 20000048h
        0800072e cd e9 08 34     strd       r3,r4,[sp,#local_30]
        08000732 00 f0 b9 f9     bl         HAL_GPIO_Init                                    undefined HAL_GPIO_Init()
        08000736 31 49           ldr        r1,[DAT_080007fc]                                = 40004C00h
        08000738 2c 61           str        r4,[r5,#0x10]=>DAT_20000058                      = ??
        0800073a 4f f4 e1 33     mov.w      r3,#0x1c200
        0800073e c5 e9 00 13     strd       r1,r3,[r5,#0x0]=>huart4                          = ??
        08000742 28 46           mov        r0=>huart4,r5                                    = ??
        08000744 0c 23           movs       r3,#0xc
        08000746 c5 e9 02 44     strd       r4,r4,[r5,#0x8]=>DAT_20000050                    = ??
        0800074a c5 e9 05 34     strd       r3,r4,[r5,#0x14]=>DAT_2000005c                   = ??
        0800074e ec 61           str        r4,[r5,#0x1c]=>DAT_20000064                      = ??
        08000750 00 f0 dc fd     bl         HAL_UART_Init                                    undefined HAL_UART_Init()
        08000754 04 46           mov        r4,r0
        08000756 08 b1           cbz        r0,LAB_0800075c
        08000758 72 b6           cpsid      i
                             LAB_0800075a                                    XREF[1]:     0800075a(j)  
        0800075a fe e7           b          LAB_0800075a
                             LAB_0800075c                                    XREF[1]:     08000756(j)  
        0800075c 28 49           ldr        r1=>bruh.0,[DAT_08000800]                        = "USB initialized successfully\n"
                                                                                             = 20000000h
        0800075e 4f f0 ff 33     mov.w      r3,#0xffffffff
        08000762 1e 22           movs       r2,#0x1e
        08000764 28 46           mov        r0=>huart4,r5                                    = ??
        08000766 00 f0 00 fe     bl         HAL_UART_Transmit                                undefined HAL_UART_Transmit()
        0800076a 00 bf           nop
        0800076c 00 bf           nop
        0800076e 00 bf           nop
        08000770 00 bf           nop
        08000772 00 bf           nop
        08000774 00 bf           nop
        08000776 00 bf           nop
        08000778 00 bf           nop
        0800077a 00 bf           nop
        0800077c 00 bf           nop
        0800077e 00 bf           nop
        08000780 00 bf           nop
        08000782 00 bf           nop
        08000784 00 bf           nop
        08000786 00 bf           nop
        08000788 00 bf           nop
        0800078a 00 bf           nop
        0800078c 00 bf           nop
        0800078e 00 bf           nop
        08000790 00 bf           nop
        08000792 00 bf           nop
        08000794 00 bf           nop
        08000796 00 bf           nop
        08000798 00 bf           nop
        0800079a 00 bf           nop
        0800079c 00 bf           nop
        0800079e 00 bf           nop
        080007a0 00 bf           nop
        080007a2 00 bf           nop
        080007a4 00 bf           nop
        080007a6 00 bf           nop
        080007a8 00 bf           nop
        080007aa 00 bf           nop
        080007ac 00 bf           nop
        080007ae 00 bf           nop
        080007b0 00 bf           nop
        080007b2 00 bf           nop
        080007b4 00 bf           nop
        080007b6 00 bf           nop
        080007b8 00 bf           nop
        080007ba 12 4a           ldr        r2,[DAT_08000804]                                = 08001478h
        080007bc 10 68           ldr        r0,[r2,#0x0]=>_etext                             = 494E4946h
        080007be 51 68           ldr        r1,[r2,#0x4]=>DAT_0800147c                       = 44454853h
        080007c0 12 89           ldrh       r2,[r2,#0x8]=>DAT_08001480                       = 000Ah
        080007c2 07 ab           add        r3,sp,#0x1c
        080007c4 03 c3           stmia      r3!=>local_34,{r0,r1}
        080007c6 07 a9           add        r1,sp,#0x1c
        080007c8 1a 80           strh       r2,[r3,#0x0]=>local_2c
        080007ca 28 46           mov        r0=>huart4,r5                                    = ??
        080007cc 4f f0 ff 33     mov.w      r3,#0xffffffff
        080007d0 32 46           mov        r2,r6
        080007d2 00 f0 ca fd     bl         HAL_UART_Transmit                                undefined HAL_UART_Transmit()
        080007d6 20 46           mov        r0,r4
        080007d8 0d b0           add        sp,#0x34
        080007da bd e8 f0 83     pop.w      {r4,r5,r6,r7,r8,r9,pc}
        080007de 00              ??         00h
        080007df bf              ??         BFh
                             DAT_080007e0                                    XREF[1]:     main:08000576(R)  
        080007e0 00 38 02 40     undefined4 40023800h
                             DAT_080007e4                                    XREF[3]:     main:0800057c(R), 
                                                                                          main:08000614(R), 
                                                                                          main:08000726(R)  
        080007e4 00 10 02 40     undefined4 40021000h
                             DAT_080007e8                                    XREF[3]:     main:080005fe(R), 
                                                                                          main:08000624(R), 
                                                                                          main:080006bc(R)  
        080007e8 00 08 02 40     undefined4 40020800h
                             DAT_080007ec                                    XREF[3]:     main:08000606(R), 
                                                                                          main:080006a8(R), 
                                                                                          main:080006fc(R)  
        080007ec 00 0c 02 40     undefined4 40020C00h
                             DAT_080007f0                                    XREF[5]:     main:08000638(R), 
                                                                                          main:0800064e(R), 
                                                                                          main:08000668(R), 
                                                                                          main:080006d4(R), 
                                                                                          main:080006e8(R)  
        080007f0 00 00 02 40     undefined4 40020000h
                             DAT_080007f4                                    XREF[3]:     main:0800067e(R), 
                                                                                          main:08000690(R), 
                                                                                          main:08000710(R)  
        080007f4 00 04 02 40     undefined4 40020400h
                             DAT_080007f8                                    XREF[1]:     main:0800072c(R)  
        080007f8 48 00 00 20     undefined4 20000048h                                        ?  ->  20000048
                             DAT_080007fc                                    XREF[1]:     main:08000736(R)  
        080007fc 00 4c 00 40     undefined4 40004C00h
                             DAT_08000800                                    XREF[1]:     main:0800075c(R)  
        08000800 00 00 00 20     undefined4 20000000h                                        ?  ->  20000000
                             DAT_08000804                                    XREF[1]:     main:080007ba(R)  
        08000804 78 14 00 08     undefined4 08001478h                                        ?  ->  08001478
                             **************************************************************
                             *                          FUNCTION                          *
                             **************************************************************
                             undefined HAL_MspInit()
                               assume LRset = 0x0
                               assume TMode = 0x1
             undefined         <UNASSIGNED>   <RETURN>
             undefined4        Stack[-0x4]:4  local_4                                 XREF[3]:     08000822(W), 
                                                                                                   08000832(W), 
                                                                                                   08000834(R)  
             undefined4        Stack[-0x8]:4  local_8                                 XREF[3]:     0800080e(W), 
                                                                                                   0800081e(W), 
                                                                                                   08000820(R)  
                             HAL_MspInit                                     XREF[2]:     Entry Point(*), 
                                                                                          HAL_Init:080009c8(c)  
        08000808 82 b0           sub        sp,#0x8
        0800080a 0d 4b           ldr        r3,[DAT_08000840]                                = 40023800h
        0800080c 00 21           movs       r1,#0x0
        0800080e 00 91           str        r1,[sp,#0x0]=>local_8
        08000810 5a 6c           ldr        r2,[r3,#0x44]=>DAT_40023844
        08000812 42 f4 80 42     orr        r2,r2,#0x4000
        08000816 5a 64           str        r2,[r3,#0x44]=>DAT_40023844
        08000818 5a 6c           ldr        r2,[r3,#0x44]=>DAT_40023844
        0800081a 02 f4 80 42     and        r2,r2,#0x4000
        0800081e 00 92           str        r2,[sp,#0x0]=>local_8
        08000820 00 9a           ldr        r2,[sp,#0x0]=>local_8
        08000822 01 91           str        r1,[sp,#local_4]
        08000824 1a 6c           ldr        r2,[r3,#0x40]=>DAT_40023840
        08000826 42 f0 80 52     orr        r2,r2,#0x10000000
        0800082a 1a 64           str        r2,[r3,#0x40]=>DAT_40023840
        0800082c 1b 6c           ldr        r3,[r3,#0x40]=>DAT_40023840
        0800082e 03 f0 80 53     and        r3,r3,#0x10000000
        08000832 01 93           str        r3,[sp,#local_4]
        08000834 01 9b           ldr        r3,[sp,#local_4]
        08000836 07 20           movs       r0,#0x7
        08000838 02 b0           add        sp,#0x8
        0800083a 00 f0 dd b8     b.w        HAL_NVIC_SetPriorityGrouping                     undefined HAL_NVIC_SetPriorityGr
                             -- Flow Override: CALL_RETURN (CALL_TERMINATOR)
        0800083e 00              ??         00h
        0800083f bf              ??         BFh
                             DAT_08000840                                    XREF[1]:     HAL_MspInit:0800080a(R)  
        08000840 00 38 02 40     undefined4 40023800h
                             **************************************************************
                             *                          FUNCTION                          *
                             **************************************************************
                             undefined HAL_UART_MspInit()
                               assume LRset = 0x0
                               assume TMode = 0x1
             undefined         <UNASSIGNED>   <RETURN>
             undefined4        Stack[-0x1c]:4 local_1c                                XREF[1]:     080008ba(W)  
             undefined4        Stack[-0x20]:4 local_20                                XREF[1]:     080008ac(W)  
             undefined4        Stack[-0x24]:4 local_24                                XREF[1]:     080008c2(W)  
             undefined4        Stack[-0x2c]:4 local_2c                                XREF[2]:     080008a8(W), 
                                                                                                   080008be(W)  
             undefined4        Stack[-0x30]:4 local_30                                XREF[3]:     0800088c(W), 
                                                                                                   0800089c(W), 
                                                                                                   080008a6(R)  
             undefined4        Stack[-0x34]:4 local_34                                XREF[3]:     08000878(W), 
                                                                                                   08000888(W), 
                                                                                                   0800088a(R)  
             undefined4        Stack[-0x38]:4 local_38                                XREF[3]:     08000862(W), 
                                                                                                   08000874(W), 
                                                                                                   08000876(R)  
                             HAL_UART_MspInit                                XREF[2]:     Entry Point(*), 
                                                                                          HAL_UART_Init:08001320(c)  
        08000844 f0 b5           push       {r4,r5,r6,r7,lr}
        08000846 04 46           mov        r4,r0
        08000848 89 b0           sub        sp,#0x24
        0800084a 14 22           movs       r2,#0x14
        0800084c 00 21           movs       r1,#0x0
        0800084e 03 a8           add        r0,sp,#0xc
        08000850 00 f0 d9 fd     bl         memset                                           void * memset(void * __s, int __
        08000854 22 68           ldr        r2,[r4,#0x0]
        08000856 1e 4b           ldr        r3,[DAT_080008d0]                                = 40004C00h
        08000858 9a 42           cmp        r2,r3
        0800085a 36 d1           bne        LAB_080008ca
        0800085c 03 f5 f6 33     add.w      r3,r3,#0x1ec00
        08000860 00 24           movs       r4,#0x0
        08000862 00 94           str        r4,[sp,#0x0]=>local_38
        08000864 1a 6c           ldr        r2,[r3,#0x40]=>DAT_40023840
        08000866 1b 48           ldr        r0,[DAT_080008d4]                                = 40020000h
        08000868 42 f4 00 22     orr        r2,r2,#0x80000
        0800086c 1a 64           str        r2,[r3,#0x40]=>DAT_40023840
        0800086e 1a 6c           ldr        r2,[r3,#0x40]=>DAT_40023840
        08000870 02 f4 00 22     and        r2,r2,#0x80000
        08000874 00 92           str        r2,[sp,#0x0]=>local_38
        08000876 00 9a           ldr        r2,[sp,#0x0]=>local_38
        08000878 01 94           str        r4,[sp,#local_34]
        0800087a 1a 6b           ldr        r2,[r3,#0x30]=>DAT_40023830
        0800087c 42 f0 01 02     orr        r2,r2,#0x1
        08000880 1a 63           str        r2,[r3,#0x30]=>DAT_40023830
        08000882 1a 6b           ldr        r2,[r3,#0x30]=>DAT_40023830
        08000884 02 f0 01 02     and        r2,r2,#0x1
        08000888 01 92           str        r2,[sp,#local_34]
        0800088a 01 9a           ldr        r2,[sp,#local_34]
        0800088c 02 94           str        r4,[sp,#local_30]
        0800088e 1a 6b           ldr        r2,[r3,#0x30]=>DAT_40023830
        08000890 42 f0 04 02     orr        r2,r2,#0x4
        08000894 1a 63           str        r2,[r3,#0x30]=>DAT_40023830
        08000896 1b 6b           ldr        r3,[r3,#0x30]=>DAT_40023830
        08000898 03 f0 04 03     and        r3,r3,#0x4
        0800089c 02 93           str        r3,[sp,#local_30]
        0800089e 02 25           movs       r5,#0x2
        080008a0 03 27           movs       r7,#0x3
        080008a2 08 26           movs       r6,#0x8
        080008a4 03 a9           add        r1,sp,#0xc
        080008a6 02 9b           ldr        r3,[sp,#local_30]
        080008a8 cd e9 03 55     strd       r5,r5,[sp,#local_2c]
        080008ac cd e9 06 76     strd       r7,r6,[sp,#local_20]
        080008b0 00 f0 fa f8     bl         HAL_GPIO_Init                                    undefined HAL_GPIO_Init()
        080008b4 4f f4 80 63     mov.w      r3=>_Min_Stack_Size,#0x400
        080008b8 07 48           ldr        r0,[DAT_080008d8]                                = 40020800h
        080008ba 07 96           str        r6,[sp,#local_1c]
        080008bc 03 a9           add        r1,sp,#0xc
        080008be cd e9 03 35     strd       r3=>_Min_Stack_Size,r5,[sp,#local_2c]
        080008c2 cd e9 05 47     strd       r4,r7,[sp,#local_24]
        080008c6 00 f0 ef f8     bl         HAL_GPIO_Init                                    undefined HAL_GPIO_Init()
                             LAB_080008ca                                    XREF[1]:     0800085a(j)  
        080008ca 09 b0           add        sp,#0x24
        080008cc f0 bd           pop        {r4,r5,r6,r7,pc}
        080008ce 00              ??         00h
        080008cf bf              ??         BFh
                             DAT_080008d0                                    XREF[1]:     HAL_UART_MspInit:08000856(R)  
        080008d0 00 4c 00 40     undefined4 40004C00h
                             DAT_080008d4                                    XREF[1]:     HAL_UART_MspInit:08000866(R)  
        080008d4 00 00 02 40     undefined4 40020000h
                             DAT_080008d8                                    XREF[1]:     HAL_UART_MspInit:080008b8(R)  
        080008d8 00 08 02 40     undefined4 40020800h
                             **************************************************************
                             *                          FUNCTION                          *
                             **************************************************************
                             undefined NMI_Handler()
                               assume LRset = 0x0
                               assume TMode = 0x1
             undefined         <UNASSIGNED>   <RETURN>
                             NMI_Handler+1                                   XREF[2,1]:   Entry Point(*), 080008dc(j), 
                             NMI_Handler                                                  08000008(*)  
        080008dc fe e7           b          NMI_Handler
                             **************************************************************
                             *                          FUNCTION                          *
                             **************************************************************
                             undefined HardFault_Handler()
                               assume LRset = 0x0
                               assume TMode = 0x1
             undefined         <UNASSIGNED>   <RETURN>
                             HardFault_Handler+1                             XREF[2,1]:   Entry Point(*), 080008de(j), 
                             HardFault_Handler                                            0800000c(*)  
        080008de fe e7           b          HardFault_Handler
                             **************************************************************
                             *                          FUNCTION                          *
                             **************************************************************
                             undefined MemManage_Handler()
                               assume LRset = 0x0
                               assume TMode = 0x1
             undefined         <UNASSIGNED>   <RETURN>
                             MemManage_Handler+1                             XREF[2,1]:   Entry Point(*), 080008e0(j), 
                             MemManage_Handler                                            08000010(*)  
        080008e0 fe e7           b          MemManage_Handler
                             **************************************************************
                             *                          FUNCTION                          *
                             **************************************************************
                             undefined BusFault_Handler()
                               assume LRset = 0x0
                               assume TMode = 0x1
             undefined         <UNASSIGNED>   <RETURN>
                             BusFault_Handler+1                              XREF[2,1]:   Entry Point(*), 080008e2(j), 
                             BusFault_Handler                                             08000014(*)  
        080008e2 fe e7           b          BusFault_Handler
                             **************************************************************
                             *                          FUNCTION                          *
                             **************************************************************
                             undefined UsageFault_Handler()
                               assume LRset = 0x0
                               assume TMode = 0x1
             undefined         <UNASSIGNED>   <RETURN>
                             UsageFault_Handler+1                            XREF[2,1]:   Entry Point(*), 080008e4(j), 
                             UsageFault_Handler                                           08000018(*)  
        080008e4 fe e7           b          UsageFault_Handler
                             **************************************************************
                             *                          FUNCTION                          *
                             **************************************************************
                             undefined SVC_Handler()
                               assume LRset = 0x0
                               assume TMode = 0x1
             undefined         <UNASSIGNED>   <RETURN>
                             SVC_Handler+1                                   XREF[1,1]:   Entry Point(*), 0800002c(*)  
                             SVC_Handler
        080008e6 70 47           bx         lr
                             **************************************************************
                             *                          FUNCTION                          *
                             **************************************************************
                             undefined DebugMon_Handler()
                               assume LRset = 0x0
                               assume TMode = 0x1
             undefined         <UNASSIGNED>   <RETURN>
                             DebugMon_Handler+1                              XREF[1,1]:   Entry Point(*), 08000030(*)  
                             DebugMon_Handler
        080008e8 70 47           bx         lr
                             **************************************************************
                             *                          FUNCTION                          *
                             **************************************************************
                             undefined PendSV_Handler()
                               assume LRset = 0x0
                               assume TMode = 0x1
             undefined         <UNASSIGNED>   <RETURN>
                             PendSV_Handler+1                                XREF[1,1]:   Entry Point(*), 08000038(*)  
                             PendSV_Handler
        080008ea 70 47           bx         lr
                             **************************************************************
                             *                       THUNK FUNCTION                       *
                             **************************************************************
                             thunk undefined SysTick_Handler()
                               Thunked-Function: HAL_IncTick
                               assume LRset = 0x0
                               assume TMode = 0x1
             undefined         <UNASSIGNED>   <RETURN>
                             SysTick_Handler+1                               XREF[1,1]:   Entry Point(*), 0800003c(*)  
                             SysTick_Handler
        080008ec 00 f0 72 b8     b.w        HAL_IncTick
                             **************************************************************
                             *                          FUNCTION                          *
                             **************************************************************
                             undefined SystemInit()
                               assume LRset = 0x0
                               assume TMode = 0x1
             undefined         <UNASSIGNED>   <RETURN>
                             SystemInit                                      XREF[2]:     Entry Point(*), 
                                                                                          Reset_Handler:08000908(c)  
        080008f0 03 4a           ldr        r2,[DAT_08000900]                                = E000ED00h
        080008f2 d2 f8 88 30     ldr.w      r3,[r2,#0x88]=>DAT_e000ed88
        080008f6 43 f4 70 03     orr        r3,r3,#0xf00000
        080008fa c2 f8 88 30     str.w      r3,[r2,#0x88]=>DAT_e000ed88
        080008fe 70 47           bx         lr
                             DAT_08000900                                    XREF[1]:     SystemInit:080008f0(R)  
        08000900 00 ed 00 e0     undefined4 E000ED00h
                             **************************************************************
                             *                          FUNCTION                          *
                             **************************************************************
                             undefined Reset_Handler()
                               assume LRset = 0x0
                               assume TMode = 0x1
             undefined         <UNASSIGNED>   <RETURN>
                             Reset_Handler+1                                 XREF[1,2]:   Entry Point(*), 08000004(*), 
                             Reset_Handler                                                _elfHeader::00000018(*)  
        08000904 df f8 34 d0     ldr.w      sp,[DAT_0800093c]                                = 20020000h
        08000908 ff f7 f2 ff     bl         SystemInit                                       undefined SystemInit()
        0800090c 0c 48           ldr        r0=>bruh.0,[DAT_08000940]                        = "USB initialized successfully\n"
                                                                                             = 20000000h
        0800090e 0d 49           ldr        r1=>completed.1,[DAT_08000944]                   = ??
                                                                                             = 2000002Ch
        08000910 0d 4a           ldr        r2,[DAT_08000948]                                = 080014ACh
        08000912 00 23           movs       r3,#0x0
        08000914 02 e0           b          LoopCopyDataInit
                             CopyDataInit                                    XREF[1]:     08000920(j)  
        08000916 d4 58           ldr        r4,[r2,r3]=>_sidata
        08000918 c4 50           str        r4,[r0,r3]=>bruh.0                               = "USB initialized successfully\n"
        0800091a 04 33           adds       r3,#0x4
                             LoopCopyDataInit                                XREF[1]:     08000914(j)  
        0800091c c4 18           adds       r4,r0,r3
        0800091e 8c 42           cmp        r4,r1
        08000920 f9 d3           bcc        CopyDataInit
        08000922 0a 4a           ldr        r2=>completed.1,[DAT_0800094c]                   = ??
                                                                                             = 2000002Ch
        08000924 0a 4c           ldr        r4,[DAT_08000950]                                = 20000094h
        08000926 00 23           movs       r3,#0x0
        08000928 01 e0           b          LoopFillZerobss
                             FillZerobss                                     XREF[1]:     08000930(j)  
        0800092a 13 60           str        r3,[r2,#0x0]=>completed.1                        = ??
        0800092c 04 32           adds       r2,#0x4
                             LoopFillZerobss                                 XREF[1]:     08000928(j)  
        0800092e a2 42           cmp        r2,r4
        08000930 fb d3           bcc        FillZerobss
        08000932 00 f0 71 fd     bl         __libc_init_array                                undefined __libc_init_array()
        08000936 ff f7 11 fe     bl         main                                             undefined main()
                             LAB_0800093a                                    XREF[1]:     0800093a(j)  
        0800093a 70 47           bx         lr=>LAB_0800093a
                             -- Flow Override: BRANCH (COMPUTED_JUMP)
                             DAT_0800093c                                    XREF[1]:     Reset_Handler:08000904(R)  
        0800093c 00 00 02 20     undefined4 20020000h
                             DAT_08000940                                    XREF[1]:     Reset_Handler:0800090c(R)  
        08000940 00 00 00 20     undefined4 20000000h                                        ?  ->  20000000
                             DAT_08000944                                    XREF[1]:     Reset_Handler:0800090e(R)  
        08000944 2c 00 00 20     undefined4 2000002Ch                                        ?  ->  2000002c
                             DAT_08000948                                    XREF[1]:     Reset_Handler:08000910(R)  
        08000948 ac 14 00 08     undefined4 080014ACh
                             DAT_0800094c                                    XREF[1]:     Reset_Handler:08000922(R)  
        0800094c 2c 00 00 20     undefined4 2000002Ch                                        ?  ->  2000002c
                             DAT_08000950                                    XREF[1]:     Reset_Handler:08000924(R)  
        08000950 94 00 00 20     undefined4 20000094h                                        ?  ->  20000094
                             **************************************************************
                             *                          FUNCTION                          *
                             **************************************************************
                             undefined DMA1_Stream3_IRQHandler()
                               assume LRset = 0x0
                               assume TMode = 0x1
             undefined         <UNASSIGNED>   <RETURN>
                             DMA1_Stream3_IRQHandler+1                       XREF[2,20+]  Entry Point(*), 08000954(j), 
                             Infinite_Loop                                                08000040(*), 08000044(*), 
                             RTC_Alarm_IRQHandler                                         08000048(*), 0800004c(*), 
                             HASH_RNG_IRQHandler                                          08000050(*), 08000054(*), 
                             EXTI2_IRQHandler                                             08000058(*), 0800005c(*), 
                             TIM8_CC_IRQHandler                                           08000060(*), 08000064(*), 
                             TIM1_CC_IRQHandler                                           08000068(*), 0800006c(*), 
                             DMA2_Stream5_IRQHandler                                      08000070(*), 08000074(*), 
                             DMA1_Stream5_IRQHandler                                      08000078(*), 0800007c(*), 
                             PVD_IRQHandler                                               08000080(*), 08000084(*)  
                             SDIO_IRQHandler
                             TAMP_STAMP_IRQHandler
                             CAN2_RX1_IRQHandler
                             EXTI3_IRQHandler
                             TIM8_TRG_COM_TIM14_IRQHandler
                             TIM1_UP_TIM10_IRQHandler
                             TIM8_UP_TIM13_IRQHandler
                             I2C3_ER_IRQHandler
                             EXTI0_IRQHandler
                             I2C2_EV_IRQHandler
                             DMA1_Stream2_IRQHandler
                             CAN1_RX0_IRQHandler
                             FPU_IRQHandler
                             OTG_HS_WKUP_IRQHandler
                             CAN2_SCE_IRQHandler
                             DMA2_Stream2_IRQHandler
                             SPI1_IRQHandler
                             TIM6_DAC_IRQHandler
                             TIM1_BRK_TIM9_IRQHandler
                             DCMI_IRQHandler
                             CAN2_RX0_IRQHandler
                             DMA2_Stream3_IRQHandler
                             USART6_IRQHandler
                             USART3_IRQHandler
                             CAN1_RX1_IRQHandler
                             UART5_IRQHandler
                             DMA2_Stream0_IRQHandler
                             TIM4_IRQHandler
                             I2C1_EV_IRQHandler
                             DMA1_Stream6_IRQHandler
                             DMA1_Stream1_IRQHandler
                             UART4_IRQHandler
                             TIM3_IRQHandler
                             RCC_IRQHandler
                             TIM8_BRK_TIM12_IRQHandler
                             Default_Handler
                             EXTI15_10_IRQHandler
                             ADC_IRQHandler
                             DMA1_Stream7_IRQHandler
                             TIM7_IRQHandler
                             CAN2_TX_IRQHandler
                             TIM5_IRQHandler
                             DMA2_Stream7_IRQHandler
                             I2C3_EV_IRQHandler
                             EXTI9_5_IRQHandler
                             RTC_WKUP_IRQHandler
                             ETH_WKUP_IRQHandler
                             SPI2_IRQHandler
                             OTG_HS_EP1_IN_IRQHandler
                             DMA1_Stream0_IRQHandler
                             CAN1_TX_IRQHandler
                             EXTI4_IRQHandler
                             FSMC_IRQHandler
                             ETH_IRQHandler
                             OTG_HS_EP1_OUT_IRQHandler
                             WWDG_IRQHandler
                             TIM2_IRQHandler
                             OTG_FS_WKUP_IRQHandler
                             TIM1_TRG_COM_TIM11_IRQHandler
                             OTG_HS_IRQHandler
                             EXTI1_IRQHandler
                             USART2_IRQHandler
                             I2C2_ER_IRQHandler
                             DMA2_Stream1_IRQHandler
                             CAN1_SCE_IRQHandler
                             FLASH_IRQHandler
                             DMA2_Stream4_IRQHandler
                             USART1_IRQHandler
                             OTG_FS_IRQHandler
                             SPI3_IRQHandler
                             DMA1_Stream4_IRQHandler
                             I2C1_ER_IRQHandler
                             DMA2_Stream6_IRQHandler
                             DMA1_Stream3_IRQHandler
        08000954 fe e7           b          DMA1_Stream3_IRQHandler
        08000956 00              ??         00h
        08000957 00              ??         00h
                             **************************************************************
                             *                          FUNCTION                          *
                             **************************************************************
                             undefined HAL_InitTick()
                               assume LRset = 0x0
                               assume TMode = 0x1
             undefined         <UNASSIGNED>   <RETURN>
                             HAL_InitTick                                    XREF[3]:     Entry Point(*), 
                                                                                          HAL_Init:080009c4(c), 
                                                                                          HAL_RCC_ClockConfig:08001082(c)  
        08000958 38 b5           push       {r3,r4,r5,lr}
        0800095a 0e 4b           ldr        r3,[DAT_08000994]                                = 20000024h
        0800095c 1a 78           ldrb       r2,[r3,#0x0]=>uwTickFreq                         = 01h
        0800095e 4f f4 7a 73     mov.w      r3,#0x3e8
        08000962 b3 fb f2 f3     udiv       r3,r3,r2
        08000966 0c 4a           ldr        r2=>SystemCoreClock,[DAT_08000998]               = 00F42400h
                                                                                             = 20000020h
        08000968 05 46           mov        r5,r0
        0800096a 10 68           ldr        r0,[r2,#0x0]=>SystemCoreClock                    = 00F42400h
        0800096c b0 fb f3 f0     udiv       r0,r0,r3
        08000970 00 f0 86 f8     bl         HAL_SYSTICK_Config                               undefined HAL_SYSTICK_Config()
        08000974 04 46           mov        r4,r0
        08000976 58 b9           cbnz       r0,LAB_08000990
        08000978 0f 2d           cmp        r5,#0xf
        0800097a 09 d8           bhi        LAB_08000990
        0800097c 02 46           mov        r2,r0
        0800097e 29 46           mov        r1,r5
        08000980 4f f0 ff 30     mov.w      r0,#0xffffffff
        08000984 00 f0 4a f8     bl         HAL_NVIC_SetPriority                             undefined HAL_NVIC_SetPriority()
        08000988 04 4b           ldr        r3,[DAT_0800099c]                                = 20000028h
        0800098a 20 46           mov        r0,r4
        0800098c 1d 60           str        r5,[r3,#0x0]=>uwTickPrio                         = 00000010h
                             LAB_0800098e                                    XREF[1]:     08000992(j)  
        0800098e 38 bd           pop        {r3,r4,r5,pc}
                             LAB_08000990                                    XREF[2]:     08000976(j), 0800097a(j)  
        08000990 01 20           movs       r0,#0x1
        08000992 fc e7           b          LAB_0800098e
                             DAT_08000994                                    XREF[1]:     HAL_InitTick:0800095a(R)  
        08000994 24 00 00 20     undefined4 20000024h                                        ?  ->  20000024
                             DAT_08000998                                    XREF[1]:     HAL_InitTick:08000966(R)  
        08000998 20 00 00 20     undefined4 20000020h                                        ?  ->  20000020
                             DAT_0800099c                                    XREF[1]:     HAL_InitTick:08000988(R)  
        0800099c 28 00 00 20     undefined4 20000028h                                        ?  ->  20000028
                             **************************************************************
                             *                          FUNCTION                          *
                             **************************************************************
                             undefined HAL_Init()
                               assume LRset = 0x0
                               assume TMode = 0x1
             undefined         <UNASSIGNED>   <RETURN>
                             HAL_Init                                        XREF[2]:     Entry Point(*), main:08000562(c)  
        080009a0 08 b5           push       {r3,lr}
        080009a2 0b 4b           ldr        r3=>DAT_40023c00,[DAT_080009d0]                  = 40023C00h
        080009a4 1a 68           ldr        r2,[r3,#0x0]=>DAT_40023c00
        080009a6 42 f4 00 72     orr        r2,r2,#0x200
        080009aa 1a 60           str        r2,[r3,#0x0]=>DAT_40023c00
        080009ac 1a 68           ldr        r2,[r3,#0x0]=>DAT_40023c00
        080009ae 42 f4 80 62     orr        r2,r2,#0x400
        080009b2 1a 60           str        r2,[r3,#0x0]=>DAT_40023c00
        080009b4 1a 68           ldr        r2,[r3,#0x0]=>DAT_40023c00
        080009b6 42 f4 80 72     orr        r2,r2,#0x100
        080009ba 1a 60           str        r2,[r3,#0x0]=>DAT_40023c00
        080009bc 03 20           movs       r0,#0x3
        080009be 00 f0 1b f8     bl         HAL_NVIC_SetPriorityGrouping                     undefined HAL_NVIC_SetPriorityGr
        080009c2 00 20           movs       r0,#0x0
        080009c4 ff f7 c8 ff     bl         HAL_InitTick                                     undefined HAL_InitTick()
        080009c8 ff f7 1e ff     bl         HAL_MspInit                                      undefined HAL_MspInit()
        080009cc 00 20           movs       r0,#0x0
        080009ce 08 bd           pop        {r3,pc}
                             DAT_080009d0                                    XREF[1]:     HAL_Init:080009a2(R)  
        080009d0 00 3c 02 40     undefined4 40023C00h
                             **************************************************************
                             *                          FUNCTION                          *
                             **************************************************************
                             undefined HAL_IncTick()
                               assume LRset = 0x0
                               assume TMode = 0x1
             undefined         <UNASSIGNED>   <RETURN>
                             HAL_IncTick                                     XREF[2]:     Entry Point(*), 
                                                                                          SysTick_Handler:080008ec(T), 
                                                                                          SysTick_Handler:080008ec(j)  
        080009d4 03 4a           ldr        r2,[DAT_080009e4]                                = 20000090h
        080009d6 04 4b           ldr        r3,[DAT_080009e8]                                = 20000024h
        080009d8 11 68           ldr        r1,[r2,#0x0]=>uwTick                             = ??
        080009da 1b 78           ldrb       r3,[r3,#0x0]=>uwTickFreq                         = 01h
        080009dc 0b 44           add        r3,r1
        080009de 13 60           str        r3,[r2,#0x0]=>uwTick                             = ??
        080009e0 70 47           bx         lr
        080009e2 00              ??         00h
        080009e3 bf              ??         BFh
                             DAT_080009e4                                    XREF[1]:     HAL_IncTick:080009d4(R)  
        080009e4 90 00 00 20     undefined4 20000090h                                        ?  ->  20000090
                             DAT_080009e8                                    XREF[1]:     HAL_IncTick:080009d6(R)  
        080009e8 24 00 00 20     undefined4 20000024h                                        ?  ->  20000024
                             **************************************************************
                             *                          FUNCTION                          *
                             **************************************************************
                             undefined HAL_GetTick()
                               assume LRset = 0x0
                               assume TMode = 0x1
             undefined         <UNASSIGNED>   <RETURN>
                             HAL_GetTick                                     XREF[29]:    Entry Point(*), 
                                                                                          HAL_RCC_OscConfig:08000cd4(c), 
                                                                                          HAL_RCC_OscConfig:08000ce2(c), 
                                                                                          HAL_RCC_OscConfig:08000d18(c), 
                                                                                          HAL_RCC_OscConfig:08000d24(c), 
                                                                                          HAL_RCC_OscConfig:08000d72(c), 
                                                                                          HAL_RCC_OscConfig:08000d90(c), 
                                                                                          HAL_RCC_OscConfig:08000d9e(c), 
                                                                                          HAL_RCC_OscConfig:08000dae(c), 
                                                                                          HAL_RCC_OscConfig:08000dc6(c), 
                                                                                          HAL_RCC_OscConfig:08000dd6(c), 
                                                                                          HAL_RCC_OscConfig:08000de6(c), 
                                                                                          HAL_RCC_OscConfig:08000df6(c), 
                                                                                          HAL_RCC_OscConfig:08000e3a(c), 
                                                                                          HAL_RCC_OscConfig:08000e6a(c), 
                                                                                          HAL_RCC_OscConfig:08000e76(c), 
                                                                                          HAL_RCC_OscConfig:08000ea4(c), 
                                                                                          HAL_RCC_OscConfig:08000eb4(c), 
                                                                                          HAL_RCC_OscConfig:08000ec0(c), 
                                                                                          HAL_RCC_OscConfig:08000ef0(c), 
                                                                                          [more]
        080009ec 01 4b           ldr        r3,[DAT_080009f4]                                = 20000090h
        080009ee 18 68           ldr        r0,[r3,#0x0]=>uwTick                             = ??
        080009f0 70 47           bx         lr
        080009f2 00              ??         00h
        080009f3 bf              ??         BFh
                             DAT_080009f4                                    XREF[1]:     HAL_GetTick:080009ec(R)  
        080009f4 90 00 00 20     undefined4 20000090h                                        ?  ->  20000090
                             **************************************************************
                             *                          FUNCTION                          *
                             **************************************************************
                             undefined HAL_NVIC_SetPriorityGrouping()
                               assume LRset = 0x0
                               assume TMode = 0x1
             undefined         <UNASSIGNED>   <RETURN>
                             HAL_NVIC_SetPriorityGrouping                    XREF[3]:     Entry Point(*), 
                                                                                          HAL_MspInit:0800083a(c), 
                                                                                          HAL_Init:080009be(c)  
        080009f8 07 49           ldr        r1,[DAT_08000a18]                                = E000ED00h
        080009fa ca 68           ldr        r2,[r1,#0xc]=>DAT_e000ed0c
        080009fc 22 f4 e0 62     bic        r2,r2,#0x700
        08000a00 03 02           lsls       r3,r0,#0x8
        08000a02 12 04           lsls       r2,r2,#0x10
        08000a04 03 f4 e0 63     and        r3,r3,#0x700
        08000a08 12 0c           lsrs       r2,r2,#0x10
        08000a0a 13 43           orrs       r3,r2
        08000a0c 43 f0 bf 63     orr        r3,r3,#0x5f80000
        08000a10 43 f4 00 33     orr        r3,r3,#0x20000
        08000a14 cb 60           str        r3,[r1,#0xc]=>DAT_e000ed0c
        08000a16 70 47           bx         lr
                             DAT_08000a18                                    XREF[1]:     HAL_NVIC_SetPriorityGrouping:080
        08000a18 00 ed 00 e0     undefined4 E000ED00h
                             **************************************************************
                             *                          FUNCTION                          *
                             **************************************************************
                             undefined HAL_NVIC_SetPriority()
                               assume LRset = 0x0
                               assume TMode = 0x1
             undefined         <UNASSIGNED>   <RETURN>
                             HAL_NVIC_SetPriority                            XREF[2]:     Entry Point(*), 
                                                                                          HAL_InitTick:08000984(c)  
        08000a1c 16 4b           ldr        r3,[DAT_08000a78]                                = E000ED00h
        08000a1e 30 b5           push       {r4,r5,lr}
        08000a20 dc 68           ldr        r4,[r3,#0xc]=>DAT_e000ed0c
        08000a22 c4 f3 02 24     ubfx       r4,r4,#0x8,#0x3
        08000a26 c4 f1 07 03     rsb.w      r3,r4,#0x7
        08000a2a 25 1d           adds       r5,r4,#0x4
        08000a2c 04 2b           cmp        r3,#0x4
        08000a2e 28 bf           it         cs
        08000a30 04 23           mov.cs     r3,#0x4
        08000a32 06 2d           cmp        r5,#0x6
        08000a34 4f f0 ff 35     mov.w      r5,#0xffffffff
        08000a38 8c bf           ite        hi
        08000a3a 03 3c           sub.hi     r4,#0x3
        08000a3c 00 24           mov.ls     r4,#0x0
        08000a3e 05 fa 03 f3     lsl.w      r3,r5,r3
        08000a42 21 ea 03 03     bic.w      r3,r1,r3
        08000a46 a5 40           lsls       r5,r4
        08000a48 22 ea 05 02     bic.w      r2,r2,r5
        08000a4c a3 40           lsls       r3,r4
        08000a4e 00 28           cmp        r0,#0x0
        08000a50 43 ea 02 03     orr.w      r3,r3,r2
        08000a54 ac bf           ite        ge
        08000a56 00 f1 60 40     add.ge.w   r0,r0,#0xe0000000
        08000a5a 08 4a           ldr.lt     r2,[DAT_08000a7c]                                = E000ED14h
        08000a5c 4f ea 03 13     lsl.w      r3,r3,#0x4
        08000a60 b8 bf           it         lt
        08000a62 00 f0 0f 00     and.lt     r0,r0,#0xf
        08000a66 db b2           uxtb       r3,r3
        08000a68 aa bf           itet       ge
        08000a6a 00 f5 61 40     add.ge.w   r0,r0,#0xe100
        08000a6e 13 54           strb.lt    r3,[r2,r0]
        08000a70 80 f8 00 33     strb.ge.w  r3,[r0,#0x300]
        08000a74 30 bd           pop        {r4,r5,pc}
        08000a76 00              ??         00h
        08000a77 bf              ??         BFh
                             DAT_08000a78                                    XREF[1]:     HAL_NVIC_SetPriority:08000a1c(R)  
        08000a78 00 ed 00 e0     undefined4 E000ED00h
                             DAT_08000a7c                                    XREF[1]:     HAL_NVIC_SetPriority:08000a5a(R)  
        08000a7c 14 ed 00 e0     undefined4 E000ED14h
                             **************************************************************
                             *                          FUNCTION                          *
                             **************************************************************
                             undefined HAL_SYSTICK_Config()
                               assume LRset = 0x0
                               assume TMode = 0x1
             undefined         <UNASSIGNED>   <RETURN>
                             HAL_SYSTICK_Config                              XREF[2]:     Entry Point(*), 
                                                                                          HAL_InitTick:08000970(c)  
        08000a80 01 38           subs       r0,#0x1
        08000a82 b0 f1 80 7f     cmp.w      r0,#0x1000000
        08000a86 0b d2           bcs        LAB_08000aa0
        08000a88 4f f0 e0 23     mov.w      r3,#0xe000e000
        08000a8c 05 4a           ldr        r2,[DAT_08000aa4]                                = E000ED00h
        08000a8e 58 61           str        r0,[r3,#0x14]=>DAT_e000e014
        08000a90 f0 21           movs       r1,#0xf0
        08000a92 82 f8 23 10     strb.w     r1,[r2,#0x23]=>DAT_e000ed23
        08000a96 00 20           movs       r0,#0x0
        08000a98 07 22           movs       r2,#0x7
        08000a9a 98 61           str        r0,[r3,#0x18]=>DAT_e000e018
        08000a9c 1a 61           str        r2,[r3,#0x10]=>DAT_e000e010
        08000a9e 70 47           bx         lr
                             LAB_08000aa0                                    XREF[1]:     08000a86(j)  
        08000aa0 01 20           movs       r0,#0x1
        08000aa2 70 47           bx         lr
                             DAT_08000aa4                                    XREF[1]:     HAL_SYSTICK_Config:08000a8c(R)  
        08000aa4 00 ed 00 e0     undefined4 E000ED00h
                             **************************************************************
                             *                          FUNCTION                          *
                             **************************************************************
                             undefined HAL_GPIO_Init()
                               assume LRset = 0x0
                               assume TMode = 0x1
             undefined         <UNASSIGNED>   <RETURN>
             undefined4        Stack[-0x2c]:4 local_2c                                XREF[3]:     08000b62(W), 
                                                                                                   08000b84(W), 
                                                                                                   08000b8a(R)  
                             HAL_GPIO_Init                                   XREF[17]:    Entry Point(*), main:08000620(c), 
                                                                                          main:08000630(c), 
                                                                                          main:08000648(c), 
                                                                                          main:08000662(c), 
                                                                                          main:0800067a(c), 
                                                                                          main:08000688(c), 
                                                                                          main:080006a0(c), 
                                                                                          main:080006b4(c), 
                                                                                          main:080006cc(c), 
                                                                                          main:080006e0(c), 
                                                                                          main:080006f6(c), 
                                                                                          main:08000706(c), 
                                                                                          main:0800071e(c), 
                                                                                          main:08000732(c), 
                                                                                          HAL_UART_MspInit:080008b0(c), 
                                                                                          HAL_UART_MspInit:080008c6(c)  
        08000aa8 2d e9 f7 4f     push       {r0,r1,r2,r4,r5,r6,r7,r8,r9,r10,r11,lr}
        08000aac df f8 a4 91     ldr.w      r9,[DAT_08000c54]                                = 40023800h
        08000ab0 66 4a           ldr        r2,[DAT_08000c4c]                                = 40013C00h
        08000ab2 00 23           movs       r3,#0x0
                             LAB_08000ab4                                    XREF[1]:     08000c26(j)  
        08000ab4 0d 68           ldr        r5,[r1,#0x0]
        08000ab6 01 24           movs       r4,#0x1
        08000ab8 9c 40           lsls       r4,r3
        08000aba 04 ea 05 06     and.w      r6,r4,r5
        08000abe ac 43           bics       r4,r5
        08000ac0 40 f0 af 80     bne.w      LAB_08000c22
        08000ac4 4d 68           ldr        r5,[r1,#0x4]
        08000ac6 03 27           movs       r7,#0x3
        08000ac8 05 f0 03 04     and        r4,r5,#0x3
        08000acc 4f ea 43 08     lsl.w      r8,r3,#0x1
        08000ad0 07 fa 08 fc     lsl.w      r12,r7,r8
        08000ad4 67 1e           subs       r7,r4,#0x1
        08000ad6 01 2f           cmp        r7,#0x1
        08000ad8 6f ea 0c 0c     mvn.w      r12,r12
        08000adc 34 d8           bhi        LAB_08000b48
        08000ade 87 68           ldr        r7,[r0,#0x8]
        08000ae0 07 ea 0c 0e     and.w      lr,r7,r12
        08000ae4 cf 68           ldr        r7,[r1,#0xc]
        08000ae6 07 fa 08 f7     lsl.w      r7,r7,r8
        08000aea 47 ea 0e 07     orr.w      r7,r7,lr
        08000aee 87 60           str        r7,[r0,#0x8]
        08000af0 47 68           ldr        r7,[r0,#0x4]
        08000af2 27 ea 06 0e     bic.w      lr,r7,r6
        08000af6 c5 f3 00 17     ubfx       r7,r5,#0x4,#0x1
        08000afa 9f 40           lsls       r7,r3
        08000afc 47 ea 0e 07     orr.w      r7,r7,lr
        08000b00 47 60           str        r7,[r0,#0x4]
                             LAB_08000b02                                    XREF[1]:     08000b4a(j)  
        08000b02 c7 68           ldr        r7,[r0,#0xc]
        08000b04 07 ea 0c 0e     and.w      lr,r7,r12
        08000b08 8f 68           ldr        r7,[r1,#0x8]
        08000b0a 07 fa 08 f7     lsl.w      r7,r7,r8
        08000b0e 47 ea 0e 07     orr.w      r7,r7,lr
        08000b12 02 2c           cmp        r4,#0x2
        08000b14 c7 60           str        r7,[r0,#0xc]
        08000b16 19 d1           bne        LAB_08000b4c
        08000b18 4f ea d3 0a     lsr.w      r10,r3,#0x3
        08000b1c 00 eb 8a 0a     add.w      r10,r0,r10, lsl #0x2
        08000b20 03 f0 07 0b     and        r11,r3,#0x7
        08000b24 da f8 20 70     ldr.w      r7,[r10,#0x20]
        08000b28 4f ea 8b 0b     lsl.w      r11,r11,#0x2
        08000b2c 4f f0 0f 0e     mov.w      lr,#0xf
        08000b30 0e fa 0b fe     lsl.w      lr,lr,r11
        08000b34 27 ea 0e 0e     bic.w      lr,r7,lr
        08000b38 0f 69           ldr        r7,[r1,#0x10]
        08000b3a 07 fa 0b f7     lsl.w      r7,r7,r11
        08000b3e 47 ea 0e 07     orr.w      r7,r7,lr
        08000b42 ca f8 20 70     str.w      r7,[r10,#0x20]
        08000b46 01 e0           b          LAB_08000b4c
                             LAB_08000b48                                    XREF[1]:     08000adc(j)  
        08000b48 03 2c           cmp        r4,#0x3
        08000b4a da d1           bne        LAB_08000b02
                             LAB_08000b4c                                    XREF[2]:     08000b16(j), 08000b46(j)  
        08000b4c 07 68           ldr        r7,[r0,#0x0]
        08000b4e 04 fa 08 f4     lsl.w      r4,r4,r8
        08000b52 07 ea 0c 07     and.w      r7,r7,r12
        08000b56 3c 43           orrs       r4,r7
        08000b58 15 f4 40 3f     tst        r5,#0x30000
        08000b5c 04 60           str        r4,[r0,#0x0]
        08000b5e 60 d0           beq        LAB_08000c22
        08000b60 00 24           movs       r4,#0x0
        08000b62 01 94           str        r4,[sp,#local_2c]
        08000b64 d9 f8 44 40     ldr.w      r4,[r9,#0x44]=>DAT_40023844
        08000b68 44 f4 80 44     orr        r4,r4,#0x4000
        08000b6c c9 f8 44 40     str.w      r4,[r9,#0x44]=>DAT_40023844
        08000b70 d9 f8 44 40     ldr.w      r4,[r9,#0x44]=>DAT_40023844
        08000b74 23 f0 03 07     bic        r7,r3,#0x3
        08000b78 07 f1 80 47     add.w      r7,r7,#0x40000000
        08000b7c 04 f4 80 44     and        r4,r4,#0x4000
        08000b80 07 f5 9c 37     add.w      r7,r7,#0x13800
        08000b84 01 94           str        r4,[sp,#local_2c]
        08000b86 03 f0 03 0c     and        r12,r3,#0x3
        08000b8a 01 9c           ldr        r4,[sp,#local_2c]
        08000b8c d7 f8 08 e0     ldr.w      lr,[r7,#0x8]
        08000b90 4f ea 8c 0c     lsl.w      r12,r12,#0x2
        08000b94 0f 24           movs       r4,#0xf
        08000b96 04 fa 0c f4     lsl.w      r4,r4,r12
        08000b9a 2e ea 04 0e     bic.w      lr,lr,r4
        08000b9e 2c 4c           ldr        r4,[DAT_08000c50]                                = 40020000h
        08000ba0 a0 42           cmp        r0,r4
        08000ba2 45 d0           beq        LAB_08000c30
        08000ba4 04 f5 80 64     add.w      r4,r4,#0x400
        08000ba8 a0 42           cmp        r0,r4
        08000baa 43 d0           beq        LAB_08000c34
        08000bac 04 f5 80 64     add.w      r4,r4,#0x400
        08000bb0 a0 42           cmp        r0,r4
        08000bb2 41 d0           beq        LAB_08000c38
        08000bb4 04 f5 80 64     add.w      r4,r4,#0x400
        08000bb8 a0 42           cmp        r0,r4
        08000bba 3f d0           beq        LAB_08000c3c
        08000bbc 04 f5 80 64     add.w      r4,r4,#0x400
        08000bc0 a0 42           cmp        r0,r4
        08000bc2 3d d0           beq        LAB_08000c40
        08000bc4 04 f5 80 64     add.w      r4,r4,#0x400
        08000bc8 a0 42           cmp        r0,r4
        08000bca 3b d0           beq        LAB_08000c44
        08000bcc 04 f5 80 64     add.w      r4,r4,#0x400
        08000bd0 a0 42           cmp        r0,r4
        08000bd2 39 d0           beq        LAB_08000c48
        08000bd4 04 f5 80 64     add.w      r4,r4,#0x400
        08000bd8 a0 42           cmp        r0,r4
        08000bda 14 bf           ite        ne
        08000bdc 08 24           mov.ne     r4,#0x8
        08000bde 07 24           mov.eq     r4,#0x7
                             LAB_08000be0                                    XREF[7]:     08000c32(j), 08000c36(j), 
                                                                                          08000c3a(j), 08000c3e(j), 
                                                                                          08000c42(j), 08000c46(j), 
                                                                                          08000c4a(j)  
        08000be0 04 fa 0c f4     lsl.w      r4,r4,r12
        08000be4 44 ea 0e 04     orr.w      r4,r4,lr
        08000be8 bc 60           str        r4,[r7,#0x8]
        08000bea 94 68           ldr        r4,[r2,#0x8]=>DAT_40013c08
        08000bec f7 43           mvns       r7,r6
        08000bee 15 f4 80 1f     tst        r5,#0x100000
        08000bf2 0c bf           ite        eq
        08000bf4 3c 40           and.eq     r4,r7
        08000bf6 34 43           orr.ne     r4,r6
        08000bf8 94 60           str        r4,[r2,#0x8]=>DAT_40013c08
        08000bfa d4 68           ldr        r4,[r2,#0xc]=>DAT_40013c0c
        08000bfc 15 f4 00 1f     tst        r5,#0x200000
        08000c00 0c bf           ite        eq
        08000c02 3c 40           and.eq     r4,r7
        08000c04 34 43           orr.ne     r4,r6
        08000c06 d4 60           str        r4,[r2,#0xc]=>DAT_40013c0c
        08000c08 54 68           ldr        r4,[r2,#0x4]=>DAT_40013c04
        08000c0a 15 f4 00 3f     tst        r5,#0x20000
        08000c0e 0c bf           ite        eq
        08000c10 3c 40           and.eq     r4,r7
        08000c12 34 43           orr.ne     r4,r6
        08000c14 54 60           str        r4,[r2,#0x4]=>DAT_40013c04
        08000c16 14 68           ldr        r4,[r2,#0x0]=>DAT_40013c00
        08000c18 ed 03           lsls       r5,r5,#0xf
        08000c1a 54 bf           ite        pl
        08000c1c 3c 40           and.pl     r4,r7
        08000c1e 34 43           orr.mi     r4,r6
        08000c20 14 60           str        r4,[r2,#0x0]=>DAT_40013c00
                             LAB_08000c22                                    XREF[2]:     08000ac0(j), 08000b5e(j)  
        08000c22 01 33           adds       r3,#0x1
        08000c24 10 2b           cmp        r3,#0x10
        08000c26 7f f4 45 af     bne.w      LAB_08000ab4
        08000c2a 03 b0           add        sp,#0xc
        08000c2c bd e8 f0 8f     pop.w      {r4,r5,r6,r7,r8,r9,r10,r11,pc}
                             LAB_08000c30                                    XREF[1]:     08000ba2(j)  
        08000c30 00 24           movs       r4,#0x0
        08000c32 d5 e7           b          LAB_08000be0
                             LAB_08000c34                                    XREF[1]:     08000baa(j)  
        08000c34 01 24           movs       r4,#0x1
        08000c36 d3 e7           b          LAB_08000be0
                             LAB_08000c38                                    XREF[1]:     08000bb2(j)  
        08000c38 02 24           movs       r4,#0x2
        08000c3a d1 e7           b          LAB_08000be0
                             LAB_08000c3c                                    XREF[1]:     08000bba(j)  
        08000c3c 03 24           movs       r4,#0x3
        08000c3e cf e7           b          LAB_08000be0
                             LAB_08000c40                                    XREF[1]:     08000bc2(j)  
        08000c40 04 24           movs       r4,#0x4
        08000c42 cd e7           b          LAB_08000be0
                             LAB_08000c44                                    XREF[1]:     08000bca(j)  
        08000c44 05 24           movs       r4,#0x5
        08000c46 cb e7           b          LAB_08000be0
                             LAB_08000c48                                    XREF[1]:     08000bd2(j)  
        08000c48 06 24           movs       r4,#0x6
        08000c4a c9 e7           b          LAB_08000be0
                             DAT_08000c4c                                    XREF[1]:     HAL_GPIO_Init:08000ab0(R)  
        08000c4c 00 3c 01 40     undefined4 40013C00h
                             DAT_08000c50                                    XREF[1]:     HAL_GPIO_Init:08000b9e(R)  
        08000c50 00 00 02 40     undefined4 40020000h
                             DAT_08000c54                                    XREF[1]:     HAL_GPIO_Init:08000aac(R)  
        08000c54 00 38 02 40     undefined4 40023800h
                             **************************************************************
                             *                          FUNCTION                          *
                             **************************************************************
                             undefined HAL_GPIO_WritePin()
                               assume LRset = 0x0
                               assume TMode = 0x1
             undefined         <UNASSIGNED>   <RETURN>
                             HAL_GPIO_WritePin                               XREF[4]:     Entry Point(*), main:080005f6(c), 
                                                                                          main:08000600(c), 
                                                                                          main:0800060c(c)  
        08000c58 0a b1           cbz        r2,LAB_08000c5e
                             LAB_08000c5a                                    XREF[1]:     08000c60(j)  
        08000c5a 81 61           str        r1,[r0,#0x18]
        08000c5c 70 47           bx         lr
                             LAB_08000c5e                                    XREF[1]:     08000c58(j)  
        08000c5e 09 04           lsls       r1,r1,#0x10
        08000c60 fb e7           b          LAB_08000c5a
        08000c62 00              ??         00h
        08000c63 00              ??         00h
                             **************************************************************
                             *                          FUNCTION                          *
                             **************************************************************
                             undefined HAL_RCC_OscConfig()
                               assume LRset = 0x0
                               assume TMode = 0x1
             undefined         <UNASSIGNED>   <RETURN>
             undefined4        Stack[-0x1c]:4 local_1c                                XREF[3]:     08000e0c(W), 
                                                                                                   08000e1c(W), 
                                                                                                   08000e1e(R)  
                             HAL_RCC_OscConfig                               XREF[2]:     Entry Point(*), 
                                                                                          SystemClock_Config:08000522(c)  
        08000c64 2d e9 f3 41     push       {r0,r1,r4,r5,r6,r7,r8,lr}
        08000c68 04 46           mov        r4,r0
        08000c6a 40 b3           cbz        r0,LAB_08000cbe
        08000c6c 03 68           ldr        r3,[r0,#0x0]
        08000c6e de 07           lsls       r6,r3,#0x1f
        08000c70 10 d4           bmi        LAB_08000c94
                             LAB_08000c72                                    XREF[4]:     08000cb6(j), 08000cbc(j), 
                                                                                          08000ce0(j), 08000d22(j)  
        08000c72 23 68           ldr        r3,[r4,#0x0]
        08000c74 9d 07           lsls       r5,r3,#0x1e
        08000c76 5b d4           bmi        LAB_08000d30
                             LAB_08000c78                                    XREF[3]:     08000d66(j), 08000d8e(j), 
                                                                                          08000daa(j)  
        08000c78 23 68           ldr        r3,[r4,#0x0]
        08000c7a 19 07           lsls       r1,r3,#0x1c
        08000c7c 00 f1 9d 80     bmi.w      LAB_08000dba
                             LAB_08000c80                                    XREF[2]:     08000dd2(j), 08000df2(j)  
        08000c80 23 68           ldr        r3,[r4,#0x0]
        08000c82 5a 07           lsls       r2,r3,#0x1d
        08000c84 00 f1 bd 80     bmi.w      LAB_08000e02
                             LAB_08000c88                                    XREF[2]:     08000e4e(j), 08000e5c(j)  
        08000c88 a3 69           ldr        r3,[r4,#0x18]
        08000c8a 00 2b           cmp        r3,#0x0
        08000c8c 40 f0 24 81     bne.w      LAB_08000ed8
                             LAB_08000c90                                    XREF[2]:     08000f2c(j), 08000f52(j)  
        08000c90 00 20           movs       r0,#0x0
        08000c92 2c e0           b          LAB_08000cee
                             LAB_08000c94                                    XREF[1]:     08000c70(j)  
        08000c94 8d 4b           ldr        r3,[DAT_08000ecc]                                = 40023800h
        08000c96 9a 68           ldr        r2,[r3,#0x8]=>DAT_40023808
        08000c98 02 f0 0c 02     and        r2,r2,#0xc
        08000c9c 04 2a           cmp        r2,#0x4
        08000c9e 07 d0           beq        LAB_08000cb0
        08000ca0 9a 68           ldr        r2,[r3,#0x8]=>DAT_40023808
        08000ca2 02 f0 0c 02     and        r2,r2,#0xc
        08000ca6 08 2a           cmp        r2,#0x8
        08000ca8 0b d1           bne        LAB_08000cc2
        08000caa 5b 68           ldr        r3,[r3,#0x4]=>DAT_40023804
        08000cac 59 02           lsls       r1,r3,#0x9
        08000cae 08 d5           bpl        LAB_08000cc2
                             LAB_08000cb0                                    XREF[1]:     08000c9e(j)  
        08000cb0 86 4b           ldr        r3,[DAT_08000ecc]                                = 40023800h
        08000cb2 1b 68           ldr        r3,[r3,#0x0]=>DAT_40023800
        08000cb4 9a 03           lsls       r2,r3,#0xe
        08000cb6 dc d5           bpl        LAB_08000c72
        08000cb8 63 68           ldr        r3,[r4,#0x4]
        08000cba 00 2b           cmp        r3,#0x0
        08000cbc d9 d1           bne        LAB_08000c72
                             LAB_08000cbe                                    XREF[7]:     08000c6a(j), 08000d56(j), 
                                                                                          08000f64(j), 08000f72(j), 
                                                                                          08000f7e(j), 08000f8e(j), 
                                                                                          08000fa0(j)  
        08000cbe 01 20           movs       r0,#0x1
        08000cc0 15 e0           b          LAB_08000cee
                             LAB_08000cc2                                    XREF[2]:     08000ca8(j), 08000cae(j)  
        08000cc2 63 68           ldr        r3,[r4,#0x4]
        08000cc4 81 4d           ldr        r5,[DAT_08000ecc]                                = 40023800h
        08000cc6 b3 f5 80 3f     cmp.w      r3,#0x10000
        08000cca 13 d1           bne        LAB_08000cf4
                             LAB_08000ccc                                    XREF[1]:     08000d02(j)  
        08000ccc 2b 68           ldr        r3,[r5,#0x0]=>DAT_40023800
        08000cce 43 f4 80 33     orr        r3,r3,#0x10000
        08000cd2 2b 60           str        r3,[r5,#0x0]=>DAT_40023800
                             LAB_08000cd4                                    XREF[1]:     08000d16(j)  
        08000cd4 ff f7 8a fe     bl         HAL_GetTick                                      undefined HAL_GetTick()
        08000cd8 7c 4e           ldr        r6,[DAT_08000ecc]                                = 40023800h
        08000cda 05 46           mov        r5,r0
                             LAB_08000cdc                                    XREF[1]:     08000cea(j)  
        08000cdc 33 68           ldr        r3,[r6,#0x0]=>DAT_40023800
        08000cde 9b 03           lsls       r3,r3,#0xe
        08000ce0 c7 d4           bmi        LAB_08000c72
        08000ce2 ff f7 83 fe     bl         HAL_GetTick                                      undefined HAL_GetTick()
        08000ce6 40 1b           subs       r0,r0,r5
        08000ce8 64 28           cmp        r0,#0x64
        08000cea f7 d9           bls        LAB_08000cdc
                             LAB_08000cec                                    XREF[11]:    08000d2e(j), 08000d9a(j), 
                                                                                          08000db8(j), 08000de0(j), 
                                                                                          08000e00(j), 08000e80(j), 
                                                                                          08000ebe(j), 08000eca(j), 
                                                                                          08000f3a(j), 08000f46(j), 
                                                                                          08000f60(j)  
        08000cec 03 20           movs       r0,#0x3
                             LAB_08000cee                                    XREF[3]:     08000c92(j), 08000cc0(j), 
                                                                                          08000fb4(j)  
        08000cee 02 b0           add        sp,#0x8
        08000cf0 bd e8 f0 81     pop.w      {r4,r5,r6,r7,r8,pc}
                             LAB_08000cf4                                    XREF[1]:     08000cca(j)  
        08000cf4 b3 f5 a0 2f     cmp.w      r3,#0x50000
        08000cf8 04 d1           bne        LAB_08000d04
        08000cfa 2b 68           ldr        r3,[r5,#0x0]=>DAT_40023800
        08000cfc 43 f4 80 23     orr        r3,r3,#0x40000
        08000d00 2b 60           str        r3,[r5,#0x0]=>DAT_40023800
        08000d02 e3 e7           b          LAB_08000ccc
                             LAB_08000d04                                    XREF[1]:     08000cf8(j)  
        08000d04 2a 68           ldr        r2,[r5,#0x0]=>DAT_40023800
        08000d06 22 f4 80 32     bic        r2,r2,#0x10000
        08000d0a 2a 60           str        r2,[r5,#0x0]=>DAT_40023800
        08000d0c 2a 68           ldr        r2,[r5,#0x0]=>DAT_40023800
        08000d0e 22 f4 80 22     bic        r2,r2,#0x40000
        08000d12 2a 60           str        r2,[r5,#0x0]=>DAT_40023800
        08000d14 00 2b           cmp        r3,#0x0
        08000d16 dd d1           bne        LAB_08000cd4
        08000d18 ff f7 68 fe     bl         HAL_GetTick                                      undefined HAL_GetTick()
        08000d1c 06 46           mov        r6,r0
                             LAB_08000d1e                                    XREF[1]:     08000d2c(j)  
        08000d1e 2b 68           ldr        r3,[r5,#0x0]=>DAT_40023800
        08000d20 9f 03           lsls       r7,r3,#0xe
        08000d22 a6 d5           bpl        LAB_08000c72
        08000d24 ff f7 62 fe     bl         HAL_GetTick                                      undefined HAL_GetTick()
        08000d28 80 1b           subs       r0,r0,r6
        08000d2a 64 28           cmp        r0,#0x64
        08000d2c f7 d9           bls        LAB_08000d1e
        08000d2e dd e7           b          LAB_08000cec
                             LAB_08000d30                                    XREF[1]:     08000c76(j)  
        08000d30 66 4b           ldr        r3,[DAT_08000ecc]                                = 40023800h
        08000d32 9a 68           ldr        r2,[r3,#0x8]=>DAT_40023808
        08000d34 12 f0 0c 0f     tst        r2,#0xc
        08000d38 07 d0           beq        LAB_08000d4a
        08000d3a 9a 68           ldr        r2,[r3,#0x8]=>DAT_40023808
        08000d3c 02 f0 0c 02     and        r2,r2,#0xc
        08000d40 08 2a           cmp        r2,#0x8
        08000d42 11 d1           bne        LAB_08000d68
        08000d44 5b 68           ldr        r3,[r3,#0x4]=>DAT_40023804
        08000d46 5d 02           lsls       r5,r3,#0x9
        08000d48 0e d4           bmi        LAB_08000d68
                             LAB_08000d4a                                    XREF[1]:     08000d38(j)  
        08000d4a 60 4a           ldr        r2,[DAT_08000ecc]                                = 40023800h
        08000d4c 13 68           ldr        r3,[r2,#0x0]=>DAT_40023800
        08000d4e 99 07           lsls       r1,r3,#0x1e
        08000d50 02 d5           bpl        LAB_08000d58
        08000d52 e3 68           ldr        r3,[r4,#0xc]
        08000d54 01 2b           cmp        r3,#0x1
        08000d56 b2 d1           bne        LAB_08000cbe
                             LAB_08000d58                                    XREF[1]:     08000d50(j)  
        08000d58 13 68           ldr        r3,[r2,#0x0]=>DAT_40023800
        08000d5a 21 69           ldr        r1,[r4,#0x10]
        08000d5c 23 f0 f8 03     bic        r3,r3,#0xf8
        08000d60 43 ea c1 03     orr.w      r3,r3,r1, lsl #0x3
        08000d64 13 60           str        r3,[r2,#0x0]=>DAT_40023800
        08000d66 87 e7           b          LAB_08000c78
                             LAB_08000d68                                    XREF[2]:     08000d42(j), 08000d48(j)  
        08000d68 e2 68           ldr        r2,[r4,#0xc]
        08000d6a 59 4b           ldr        r3=>DAT_42470000,[DAT_08000ed0]                  = 42470000h
        08000d6c b2 b1           cbz        r2,LAB_08000d9c
        08000d6e 01 22           movs       r2,#0x1
        08000d70 1a 60           str        r2,[r3,#0x0]=>DAT_42470000
        08000d72 ff f7 3b fe     bl         HAL_GetTick                                      undefined HAL_GetTick()
        08000d76 55 4d           ldr        r5,[DAT_08000ecc]                                = 40023800h
        08000d78 06 46           mov        r6,r0
                             LAB_08000d7a                                    XREF[1]:     08000d98(j)  
        08000d7a 2b 68           ldr        r3,[r5,#0x0]=>DAT_40023800
        08000d7c 9b 07           lsls       r3,r3,#0x1e
        08000d7e 07 d5           bpl        LAB_08000d90
        08000d80 2b 68           ldr        r3,[r5,#0x0]=>DAT_40023800
        08000d82 22 69           ldr        r2,[r4,#0x10]
        08000d84 23 f0 f8 03     bic        r3,r3,#0xf8
        08000d88 43 ea c2 03     orr.w      r3,r3,r2, lsl #0x3
        08000d8c 2b 60           str        r3,[r5,#0x0]=>DAT_40023800
        08000d8e 73 e7           b          LAB_08000c78
                             LAB_08000d90                                    XREF[1]:     08000d7e(j)  
        08000d90 ff f7 2c fe     bl         HAL_GetTick                                      undefined HAL_GetTick()
        08000d94 80 1b           subs       r0,r0,r6
        08000d96 02 28           cmp        r0,#0x2
        08000d98 ef d9           bls        LAB_08000d7a
        08000d9a a7 e7           b          LAB_08000cec
                             LAB_08000d9c                                    XREF[1]:     08000d6c(j)  
        08000d9c 1a 60           str        r2,[r3,#0x0]=>DAT_42470000
        08000d9e ff f7 25 fe     bl         HAL_GetTick                                      undefined HAL_GetTick()
        08000da2 4a 4e           ldr        r6,[DAT_08000ecc]                                = 40023800h
        08000da4 05 46           mov        r5,r0
                             LAB_08000da6                                    XREF[1]:     08000db6(j)  
        08000da6 33 68           ldr        r3,[r6,#0x0]=>DAT_40023800
        08000da8 9f 07           lsls       r7,r3,#0x1e
        08000daa 7f f5 65 af     bpl.w      LAB_08000c78
        08000dae ff f7 1d fe     bl         HAL_GetTick                                      undefined HAL_GetTick()
        08000db2 40 1b           subs       r0,r0,r5
        08000db4 02 28           cmp        r0,#0x2
        08000db6 f6 d9           bls        LAB_08000da6
        08000db8 98 e7           b          LAB_08000cec
                             LAB_08000dba                                    XREF[1]:     08000c7c(j)  
        08000dba 62 69           ldr        r2,[r4,#0x14]
        08000dbc 44 4b           ldr        r3,[DAT_08000ed0]                                = 42470000h
        08000dbe 82 b1           cbz        r2,LAB_08000de2
        08000dc0 01 22           movs       r2,#0x1
        08000dc2 c3 f8 80 2e     str.w      r2,[r3,#offset DAT_42470e80]
        08000dc6 ff f7 11 fe     bl         HAL_GetTick                                      undefined HAL_GetTick()
        08000dca 40 4e           ldr        r6,[DAT_08000ecc]                                = 40023800h
        08000dcc 05 46           mov        r5,r0
                             LAB_08000dce                                    XREF[1]:     08000dde(j)  
        08000dce 73 6f           ldr        r3,[r6,#0x74]=>DAT_40023874
        08000dd0 9b 07           lsls       r3,r3,#0x1e
        08000dd2 3f f5 55 af     bmi.w      LAB_08000c80
        08000dd6 ff f7 09 fe     bl         HAL_GetTick                                      undefined HAL_GetTick()
        08000dda 40 1b           subs       r0,r0,r5
        08000ddc 02 28           cmp        r0,#0x2
        08000dde f6 d9           bls        LAB_08000dce
        08000de0 84 e7           b          LAB_08000cec
                             LAB_08000de2                                    XREF[1]:     08000dbe(j)  
        08000de2 c3 f8 80 2e     str.w      r2,[r3,#offset DAT_42470e80]
        08000de6 ff f7 01 fe     bl         HAL_GetTick                                      undefined HAL_GetTick()
        08000dea 38 4e           ldr        r6,[DAT_08000ecc]                                = 40023800h
        08000dec 05 46           mov        r5,r0
                             LAB_08000dee                                    XREF[1]:     08000dfe(j)  
        08000dee 73 6f           ldr        r3,[r6,#0x74]=>DAT_40023874
        08000df0 9f 07           lsls       r7,r3,#0x1e
        08000df2 7f f5 45 af     bpl.w      LAB_08000c80
        08000df6 ff f7 f9 fd     bl         HAL_GetTick                                      undefined HAL_GetTick()
        08000dfa 40 1b           subs       r0,r0,r5
        08000dfc 02 28           cmp        r0,#0x2
        08000dfe f6 d9           bls        LAB_08000dee
        08000e00 74 e7           b          LAB_08000cec
                             LAB_08000e02                                    XREF[1]:     08000c84(j)  
        08000e02 32 4b           ldr        r3,[DAT_08000ecc]                                = 40023800h
        08000e04 1a 6c           ldr        r2,[r3,#0x40]=>DAT_40023840
        08000e06 12 f0 80 52     ands       r2,r2,#0x10000000
        08000e0a 28 d1           bne        LAB_08000e5e
        08000e0c 01 92           str        r2,[sp,#local_1c]
        08000e0e 1a 6c           ldr        r2,[r3,#0x40]=>DAT_40023840
        08000e10 42 f0 80 52     orr        r2,r2,#0x10000000
        08000e14 1a 64           str        r2,[r3,#0x40]=>DAT_40023840
        08000e16 1b 6c           ldr        r3,[r3,#0x40]=>DAT_40023840
        08000e18 03 f0 80 53     and        r3,r3,#0x10000000
        08000e1c 01 93           str        r3,[sp,#local_1c]
        08000e1e 01 9b           ldr        r3,[sp,#local_1c]
        08000e20 01 27           movs       r7,#0x1
                             LAB_08000e22                                    XREF[1]:     08000e60(j)  
        08000e22 2c 4d           ldr        r5,[DAT_08000ed4]                                = 40007000h
        08000e24 2b 68           ldr        r3,[r5,#0x0]=>DAT_40007000
        08000e26 d8 05           lsls       r0,r3,#0x17
        08000e28 1b d5           bpl        LAB_08000e62
                             LAB_08000e2a                                    XREF[1]:     08000e74(j)  
        08000e2a a3 68           ldr        r3,[r4,#0x8]
        08000e2c 27 4d           ldr        r5,[DAT_08000ecc]                                = 40023800h
        08000e2e 01 2b           cmp        r3,#0x1
        08000e30 27 d1           bne        LAB_08000e82
                             LAB_08000e32                                    XREF[1]:     08000e8e(j)  
        08000e32 2b 6f           ldr        r3,[r5,#0x70]=>DAT_40023870
        08000e34 43 f0 01 03     orr        r3,r3,#0x1
        08000e38 2b 67           str        r3,[r5,#0x70]=>DAT_40023870
                             LAB_08000e3a                                    XREF[1]:     08000ea2(j)  
        08000e3a ff f7 d7 fd     bl         HAL_GetTick                                      undefined HAL_GetTick()
        08000e3e 23 4e           ldr        r6,[DAT_08000ecc]                                = 40023800h
        08000e40 05 46           mov        r5,r0
        08000e42 41 f2 88 38     movw       r8,#0x1388
                             LAB_08000e46                                    XREF[1]:     08000ec8(j)  
        08000e46 33 6f           ldr        r3,[r6,#0x70]=>DAT_40023870
        08000e48 9a 07           lsls       r2,r3,#0x1e
        08000e4a 39 d5           bpl        LAB_08000ec0
                             LAB_08000e4c                                    XREF[1]:     08000eb2(j)  
        08000e4c 00 2f           cmp        r7,#0x0
        08000e4e 3f f4 1b af     beq.w      LAB_08000c88
        08000e52 1e 4a           ldr        r2,[DAT_08000ecc]                                = 40023800h
        08000e54 13 6c           ldr        r3,[r2,#0x40]=>DAT_40023840
        08000e56 23 f0 80 53     bic        r3,r3,#0x10000000
        08000e5a 13 64           str        r3,[r2,#0x40]=>DAT_40023840
        08000e5c 14 e7           b          LAB_08000c88
                             LAB_08000e5e                                    XREF[1]:     08000e0a(j)  
        08000e5e 00 27           movs       r7,#0x0
        08000e60 df e7           b          LAB_08000e22
                             LAB_08000e62                                    XREF[1]:     08000e28(j)  
        08000e62 2b 68           ldr        r3,[r5,#0x0]=>DAT_40007000
        08000e64 43 f4 80 73     orr        r3,r3,#0x100
        08000e68 2b 60           str        r3,[r5,#0x0]=>DAT_40007000
        08000e6a ff f7 bf fd     bl         HAL_GetTick                                      undefined HAL_GetTick()
        08000e6e 06 46           mov        r6,r0
                             LAB_08000e70                                    XREF[1]:     08000e7e(j)  
        08000e70 2b 68           ldr        r3,[r5,#0x0]=>DAT_40007000
        08000e72 d9 05           lsls       r1,r3,#0x17
        08000e74 d9 d4           bmi        LAB_08000e2a
        08000e76 ff f7 b9 fd     bl         HAL_GetTick                                      undefined HAL_GetTick()
        08000e7a 80 1b           subs       r0,r0,r6
        08000e7c 02 28           cmp        r0,#0x2
        08000e7e f7 d9           bls        LAB_08000e70
        08000e80 34 e7           b          LAB_08000cec
                             LAB_08000e82                                    XREF[1]:     08000e30(j)  
        08000e82 05 2b           cmp        r3,#0x5
        08000e84 04 d1           bne        LAB_08000e90
        08000e86 2b 6f           ldr        r3,[r5,#0x70]=>DAT_40023870
        08000e88 43 f0 04 03     orr        r3,r3,#0x4
        08000e8c 2b 67           str        r3,[r5,#0x70]=>DAT_40023870
        08000e8e d0 e7           b          LAB_08000e32
                             LAB_08000e90                                    XREF[1]:     08000e84(j)  
        08000e90 2a 6f           ldr        r2,[r5,#0x70]=>DAT_40023870
        08000e92 22 f0 01 02     bic        r2,r2,#0x1
        08000e96 2a 67           str        r2,[r5,#0x70]=>DAT_40023870
        08000e98 2a 6f           ldr        r2,[r5,#0x70]=>DAT_40023870
        08000e9a 22 f0 04 02     bic        r2,r2,#0x4
        08000e9e 2a 67           str        r2,[r5,#0x70]=>DAT_40023870
        08000ea0 00 2b           cmp        r3,#0x0
        08000ea2 ca d1           bne        LAB_08000e3a
        08000ea4 ff f7 a2 fd     bl         HAL_GetTick                                      undefined HAL_GetTick()
        08000ea8 41 f2 88 38     movw       r8,#0x1388
        08000eac 06 46           mov        r6,r0
                             LAB_08000eae                                    XREF[1]:     08000ebc(j)  
        08000eae 2b 6f           ldr        r3,[r5,#0x70]=>DAT_40023870
        08000eb0 9b 07           lsls       r3,r3,#0x1e
        08000eb2 cb d5           bpl        LAB_08000e4c
        08000eb4 ff f7 9a fd     bl         HAL_GetTick                                      undefined HAL_GetTick()
        08000eb8 80 1b           subs       r0,r0,r6
        08000eba 40 45           cmp        r0,r8
        08000ebc f7 d9           bls        LAB_08000eae
        08000ebe 15 e7           b          LAB_08000cec
                             LAB_08000ec0                                    XREF[1]:     08000e4a(j)  
        08000ec0 ff f7 94 fd     bl         HAL_GetTick                                      undefined HAL_GetTick()
        08000ec4 40 1b           subs       r0,r0,r5
        08000ec6 40 45           cmp        r0,r8
        08000ec8 bd d9           bls        LAB_08000e46
        08000eca 0f e7           b          LAB_08000cec
                             DAT_08000ecc                                    XREF[14]:    HAL_RCC_OscConfig:08000c94(R), 
                                                                                          HAL_RCC_OscConfig:08000cb0(R), 
                                                                                          HAL_RCC_OscConfig:08000cc4(R), 
                                                                                          HAL_RCC_OscConfig:08000cd8(R), 
                                                                                          HAL_RCC_OscConfig:08000d30(R), 
                                                                                          HAL_RCC_OscConfig:08000d4a(R), 
                                                                                          HAL_RCC_OscConfig:08000d76(R), 
                                                                                          HAL_RCC_OscConfig:08000da2(R), 
                                                                                          HAL_RCC_OscConfig:08000dca(R), 
                                                                                          HAL_RCC_OscConfig:08000dea(R), 
                                                                                          HAL_RCC_OscConfig:08000e02(R), 
                                                                                          HAL_RCC_OscConfig:08000e2c(R), 
                                                                                          HAL_RCC_OscConfig:08000e3e(R), 
                                                                                          HAL_RCC_OscConfig:08000e52(R)  
        08000ecc 00 38 02 40     undefined4 40023800h
                             DAT_08000ed0                                    XREF[2]:     HAL_RCC_OscConfig:08000d6a(R), 
                                                                                          HAL_RCC_OscConfig:08000dbc(R)  
        08000ed0 00 00 47 42     undefined4 42470000h
                             DAT_08000ed4                                    XREF[1]:     HAL_RCC_OscConfig:08000e22(R)  
        08000ed4 00 70 00 40     undefined4 40007000h
                             LAB_08000ed8                                    XREF[1]:     08000c8c(j)  
        08000ed8 37 4d           ldr        r5,[DAT_08000fb8]                                = 40023800h
        08000eda aa 68           ldr        r2,[r5,#0x8]=>DAT_40023808
        08000edc 02 f0 0c 02     and        r2,r2,#0xc
        08000ee0 08 2a           cmp        r2,#0x8
        08000ee2 3e d0           beq        LAB_08000f62
        08000ee4 02 2b           cmp        r3,#0x2
        08000ee6 35 4b           ldr        r3,[DAT_08000fbc]                                = 42470000h
        08000ee8 4f f0 00 02     mov.w      r2,#0x0
        08000eec 1a 66           str        r2,[r3,#offset DAT_42470060]
        08000eee 2b d1           bne        LAB_08000f48
        08000ef0 ff f7 7c fd     bl         HAL_GetTick                                      undefined HAL_GetTick()
        08000ef4 06 46           mov        r6,r0
                             LAB_08000ef6                                    XREF[1]:     08000f44(j)  
        08000ef6 2b 68           ldr        r3,[r5,#0x0]=>DAT_40023800
        08000ef8 99 01           lsls       r1,r3,#0x6
        08000efa 1f d4           bmi        LAB_08000f3c
        08000efc d4 e9 07 32     ldrd       r3,r2,[r4,#0x1c]
        08000f00 13 43           orrs       r3,r2
        08000f02 62 6a           ldr        r2,[r4,#0x24]
        08000f04 43 ea 82 13     orr.w      r3,r3,r2, lsl #0x6
        08000f08 e2 6a           ldr        r2,[r4,#0x2c]
        08000f0a 43 ea 02 63     orr.w      r3,r3,r2, lsl #0x18
        08000f0e a2 6a           ldr        r2,[r4,#0x28]
        08000f10 52 08           lsrs       r2,r2,#0x1
        08000f12 01 3a           subs       r2,#0x1
        08000f14 43 ea 02 43     orr.w      r3,r3,r2, lsl #0x10
        08000f18 6b 60           str        r3,[r5,#0x4]=>DAT_40023804
        08000f1a 28 4b           ldr        r3,[DAT_08000fbc]                                = 42470000h
        08000f1c 26 4d           ldr        r5,[DAT_08000fb8]                                = 40023800h
        08000f1e 01 22           movs       r2,#0x1
        08000f20 1a 66           str        r2,[r3,#offset DAT_42470060]
        08000f22 ff f7 63 fd     bl         HAL_GetTick                                      undefined HAL_GetTick()
        08000f26 04 46           mov        r4,r0
                             LAB_08000f28                                    XREF[1]:     08000f38(j)  
        08000f28 2b 68           ldr        r3,[r5,#0x0]=>DAT_40023800
        08000f2a 9a 01           lsls       r2,r3,#0x6
        08000f2c 3f f5 b0 ae     bmi.w      LAB_08000c90
        08000f30 ff f7 5c fd     bl         HAL_GetTick                                      undefined HAL_GetTick()
        08000f34 00 1b           subs       r0,r0,r4
        08000f36 02 28           cmp        r0,#0x2
        08000f38 f6 d9           bls        LAB_08000f28
        08000f3a d7 e6           b          LAB_08000cec
                             LAB_08000f3c                                    XREF[1]:     08000efa(j)  
        08000f3c ff f7 56 fd     bl         HAL_GetTick                                      undefined HAL_GetTick()
        08000f40 80 1b           subs       r0,r0,r6
        08000f42 02 28           cmp        r0,#0x2
        08000f44 d7 d9           bls        LAB_08000ef6
        08000f46 d1 e6           b          LAB_08000cec
                             LAB_08000f48                                    XREF[1]:     08000eee(j)  
        08000f48 ff f7 50 fd     bl         HAL_GetTick                                      undefined HAL_GetTick()
        08000f4c 04 46           mov        r4,r0
                             LAB_08000f4e                                    XREF[1]:     08000f5e(j)  
        08000f4e 2b 68           ldr        r3,[r5,#0x0]=>DAT_40023800
        08000f50 9b 01           lsls       r3,r3,#0x6
        08000f52 7f f5 9d ae     bpl.w      LAB_08000c90
        08000f56 ff f7 49 fd     bl         HAL_GetTick                                      undefined HAL_GetTick()
        08000f5a 00 1b           subs       r0,r0,r4
        08000f5c 02 28           cmp        r0,#0x2
        08000f5e f6 d9           bls        LAB_08000f4e
        08000f60 c4 e6           b          LAB_08000cec
                             LAB_08000f62                                    XREF[1]:     08000ee2(j)  
        08000f62 01 2b           cmp        r3,#0x1
        08000f64 3f f4 ab ae     beq.w      LAB_08000cbe
        08000f68 6b 68           ldr        r3,[r5,#0x4]=>DAT_40023804
        08000f6a e2 69           ldr        r2,[r4,#0x1c]
        08000f6c 03 f4 80 01     and        r1,r3,#0x400000
        08000f70 91 42           cmp        r1,r2
        08000f72 7f f4 a4 ae     bne.w      LAB_08000cbe
        08000f76 21 6a           ldr        r1,[r4,#0x20]
        08000f78 03 f0 3f 02     and        r2,r3,#0x3f
        08000f7c 8a 42           cmp        r2,r1
        08000f7e 7f f4 9e ae     bne.w      LAB_08000cbe
        08000f82 61 6a           ldr        r1,[r4,#0x24]
        08000f84 47 f6 c0 72     movw       r2,#0x7fc0
        08000f88 1a 40           ands       r2,r3
        08000f8a b2 eb 81 1f     cmp.w      r2,r1, lsl #0x6
        08000f8e 7f f4 96 ae     bne.w      LAB_08000cbe
        08000f92 a2 6a           ldr        r2,[r4,#0x28]
        08000f94 52 08           lsrs       r2,r2,#0x1
        08000f96 03 f4 40 31     and        r1,r3,#0x30000
        08000f9a 01 3a           subs       r2,#0x1
        08000f9c b1 eb 02 4f     cmp.w      r1,r2, lsl #0x10
        08000fa0 7f f4 8d ae     bne.w      LAB_08000cbe
        08000fa4 e2 6a           ldr        r2,[r4,#0x2c]
        08000fa6 03 f0 70 63     and        r3,r3,#0xf000000
        08000faa b3 eb 02 6f     cmp.w      r3,r2, lsl #0x18
        08000fae 14 bf           ite        ne
        08000fb0 01 20           mov.ne     r0,#0x1
        08000fb2 00 20           mov.eq     r0,#0x0
        08000fb4 9b e6           b          LAB_08000cee
        08000fb6 00              ??         00h
        08000fb7 bf              ??         BFh
                             DAT_08000fb8                                    XREF[2]:     HAL_RCC_OscConfig:08000ed8(R), 
                                                                                          HAL_RCC_OscConfig:08000f1c(R)  
        08000fb8 00 38 02 40     undefined4 40023800h
                             DAT_08000fbc                                    XREF[2]:     HAL_RCC_OscConfig:08000ee6(R), 
                                                                                          HAL_RCC_OscConfig:08000f1a(R)  
        08000fbc 00 00 47 42     undefined4 42470000h
                             **************************************************************
                             *                          FUNCTION                          *
                             **************************************************************
                             undefined HAL_RCC_GetSysClockFreq()
                               assume LRset = 0x0
                               assume TMode = 0x1
             undefined         <UNASSIGNED>   <RETURN>
                             HAL_RCC_GetSysClockFreq                         XREF[2]:     Entry Point(*), 
                                                                                          HAL_RCC_ClockConfig:08001068(c)  
        08000fc0 13 49           ldr        r1,[DAT_08001010]                                = 40023800h
        08000fc2 08 b5           push       {r3,lr}
        08000fc4 8b 68           ldr        r3,[r1,#0x8]=>DAT_40023808
        08000fc6 03 f0 0c 03     and        r3,r3,#0xc
        08000fca 04 2b           cmp        r3,#0x4
        08000fcc 1c d0           beq        LAB_08001008
        08000fce 08 2b           cmp        r3,#0x8
        08000fd0 1c d1           bne        LAB_0800100c
        08000fd2 4a 68           ldr        r2,[r1,#0x4]=>DAT_40023804
        08000fd4 4b 68           ldr        r3,[r1,#0x4]=>DAT_40023804
        08000fd6 49 68           ldr        r1,[r1,#0x4]=>DAT_40023804
        08000fd8 13 f4 80 03     ands       r3,r3,#0x400000
        08000fdc 14 bf           ite        ne
        08000fde 0d 48           ldr.ne     r0,[DAT_08001014]                                = 007A1200h
        08000fe0 0d 48           ldr.eq     r0,[DAT_08001018]                                = 00F42400h
        08000fe2 c1 f3 88 11     ubfx       r1,r1,#0x6,#0x9
        08000fe6 18 bf           it         ne
        08000fe8 00 23           mov.ne     r3,#0x0
        08000fea 02 f0 3f 02     and        r2,r2,#0x3f
        08000fee a1 fb 00 01     umull      r0,r1,r1,r0
        08000ff2 ff f7 e9 f8     bl         __aeabi_uldivmod                                 undefined __aeabi_uldivmod()
        08000ff6 06 4b           ldr        r3,[DAT_08001010]                                = 40023800h
        08000ff8 5b 68           ldr        r3,[r3,#0x4]=>DAT_40023804
        08000ffa c3 f3 01 43     ubfx       r3,r3,#0x10,#0x2
        08000ffe 01 33           adds       r3,#0x1
        08001000 5b 00           lsls       r3,r3,#0x1
        08001002 b0 fb f3 f0     udiv       r0,r0,r3
                             LAB_08001006                                    XREF[2]:     0800100a(j), 0800100e(j)  
        08001006 08 bd           pop        {r3,pc}
                             LAB_08001008                                    XREF[1]:     08000fcc(j)  
        08001008 02 48           ldr        r0,[DAT_08001014]                                = 007A1200h
        0800100a fc e7           b          LAB_08001006
                             LAB_0800100c                                    XREF[1]:     08000fd0(j)  
        0800100c 02 48           ldr        r0,[DAT_08001018]                                = 00F42400h
        0800100e fa e7           b          LAB_08001006
                             DAT_08001010                                    XREF[2]:     HAL_RCC_GetSysClockFreq:08000fc0
                                                                                          HAL_RCC_GetSysClockFreq:08000ff6
        08001010 00 38 02 40     undefined4 40023800h
                             DAT_08001014                                    XREF[2]:     HAL_RCC_GetSysClockFreq:08000fde
                                                                                          HAL_RCC_GetSysClockFreq:08001008
        08001014 00 12 7a 00     undefined4 007A1200h
                             DAT_08001018                                    XREF[2]:     HAL_RCC_GetSysClockFreq:08000fe0
                                                                                          HAL_RCC_GetSysClockFreq:0800100c
        08001018 00 24 f4 00     undefined4 00F42400h
                             **************************************************************
                             *                          FUNCTION                          *
                             **************************************************************
                             undefined HAL_RCC_ClockConfig()
                               assume LRset = 0x0
                               assume TMode = 0x1
             undefined         <UNASSIGNED>   <RETURN>
                             HAL_RCC_ClockConfig                             XREF[2]:     Entry Point(*), 
                                                                                          SystemClock_Config:08000544(c)  
        0800101c 2d e9 f0 41     push       {r4,r5,r6,r7,r8,lr}
        08001020 0d 46           mov        r5,r1
        08001022 04 46           mov        r4,r0
        08001024 10 b9           cbnz       r0,LAB_0800102c
                             LAB_08001026                                    XREF[3]:     08001096(j), 080010d2(j), 
                                                                                          08001126(j)  
        08001026 01 20           movs       r0,#0x1
                             LAB_08001028                                    XREF[2]:     08001088(j), 08001104(j)  
        08001028 bd e8 f0 81     pop.w      {r4,r5,r6,r7,r8,pc}
                             LAB_0800102c                                    XREF[1]:     08001024(j)  
        0800102c 43 4b           ldr        r3,[DAT_0800113c]                                = 40023C00h
        0800102e 1a 68           ldr        r2,[r3,#0x0]=>DAT_40023c00
        08001030 02 f0 07 02     and        r2,r2,#0x7
        08001034 8a 42           cmp        r2,r1
        08001036 28 d3           bcc        LAB_0800108a
                             LAB_08001038                                    XREF[1]:     08001098(j)  
        08001038 21 68           ldr        r1,[r4,#0x0]
        0800103a 8f 07           lsls       r7,r1,#0x1e
        0800103c 2d d4           bmi        LAB_0800109a
                             LAB_0800103e                                    XREF[1]:     080010c2(j)  
        0800103e c8 07           lsls       r0,r1,#0x1f
        08001040 40 d4           bmi        LAB_080010c4
                             LAB_08001042                                    XREF[1]:     080010f6(j)  
        08001042 3e 4b           ldr        r3,[DAT_0800113c]                                = 40023C00h
        08001044 1a 68           ldr        r2,[r3,#0x0]=>DAT_40023c00
        08001046 02 f0 07 02     and        r2,r2,#0x7
        0800104a aa 42           cmp        r2,r5
        0800104c 65 d8           bhi        LAB_0800111a
                             LAB_0800104e                                    XREF[1]:     0800112a(j)  
        0800104e 22 68           ldr        r2,[r4,#0x0]
        08001050 51 07           lsls       r1,r2,#0x1d
        08001052 6b d4           bmi        LAB_0800112c
                             LAB_08001054                                    XREF[1]:     0800113a(j)  
        08001054 13 07           lsls       r3,r2,#0x1c
        08001056 07 d5           bpl        LAB_08001068
        08001058 39 4a           ldr        r2,[DAT_08001140]                                = 40023800h
        0800105a 21 69           ldr        r1,[r4,#0x10]
        0800105c 93 68           ldr        r3,[r2,#0x8]=>DAT_40023808
        0800105e 23 f4 60 43     bic        r3,r3,#0xe000
        08001062 43 ea c1 03     orr.w      r3,r3,r1, lsl #0x3
        08001066 93 60           str        r3,[r2,#0x8]=>DAT_40023808
                             LAB_08001068                                    XREF[1]:     08001056(j)  
        08001068 ff f7 aa ff     bl         HAL_RCC_GetSysClockFreq                          undefined HAL_RCC_GetSysClockFre
        0800106c 34 4b           ldr        r3,[DAT_08001140]                                = 40023800h
        0800106e 35 4a           ldr        r2=>AHBPrescTable,[DAT_08001144]                 = 0800148Ah
        08001070 9b 68           ldr        r3,[r3,#0x8]=>DAT_40023808
        08001072 c3 f3 03 13     ubfx       r3,r3,#0x4,#0x4
        08001076 d3 5c           ldrb       r3,[r2,r3]=>AHBPrescTable
        08001078 d8 40           lsrs       r0,r3
        0800107a 33 4b           ldr        r3,[DAT_08001148]                                = 20000020h
        0800107c 18 60           str        r0,[r3,#0x0]=>SystemCoreClock                    = 00F42400h
        0800107e 33 4b           ldr        r3=>uwTickPrio,[DAT_0800114c]                    = 00000010h
                                                                                             = 20000028h
        08001080 18 68           ldr        r0,[r3,#0x0]=>uwTickPrio                         = 00000010h
        08001082 ff f7 69 fc     bl         HAL_InitTick                                     undefined HAL_InitTick()
        08001086 00 20           movs       r0,#0x0
        08001088 ce e7           b          LAB_08001028
                             LAB_0800108a                                    XREF[1]:     08001036(j)  
        0800108a ca b2           uxtb       r2,r1
        0800108c 1a 70           strb       r2,[r3,#0x0]=>DAT_40023c00
        0800108e 1b 68           ldr        r3,[r3,#0x0]=>DAT_40023c00
        08001090 03 f0 07 03     and        r3,r3,#0x7
        08001094 8b 42           cmp        r3,r1
        08001096 c6 d1           bne        LAB_08001026
        08001098 ce e7           b          LAB_08001038
                             LAB_0800109a                                    XREF[1]:     0800103c(j)  
        0800109a 29 4b           ldr        r3,[DAT_08001140]                                = 40023800h
        0800109c 11 f0 04 0f     tst        r1,#0x4
        080010a0 1e bf           ittt       ne
        080010a2 9a 68           ldr.ne     r2,[r3,#0x8]
        080010a4 42 f4 e0 52     orr.ne     r2,r2,#0x1c00
        080010a8 9a 60           str.ne     r2,[r3,#0x8]=>DAT_40023808
        080010aa 0e 07           lsls       r6,r1,#0x1c
        080010ac 42 bf           ittt       mi
        080010ae 9a 68           ldr.mi     r2,[r3,#0x8]
        080010b0 42 f4 60 42     orr.mi     r2,r2,#0xe000
        080010b4 9a 60           str.mi     r2,[r3,#0x8]=>DAT_40023808
        080010b6 9a 68           ldr        r2,[r3,#0x8]=>DAT_40023808
        080010b8 a0 68           ldr        r0,[r4,#0x8]
        080010ba 22 f0 f0 02     bic        r2,r2,#0xf0
        080010be 02 43           orrs       r2,r0
        080010c0 9a 60           str        r2,[r3,#0x8]=>DAT_40023808
        080010c2 bc e7           b          LAB_0800103e
                             LAB_080010c4                                    XREF[1]:     08001040(j)  
        080010c4 62 68           ldr        r2,[r4,#0x4]
        080010c6 1e 4b           ldr        r3,[DAT_08001140]                                = 40023800h
        080010c8 01 2a           cmp        r2,#0x1
        080010ca 1c d1           bne        LAB_08001106
        080010cc 1b 68           ldr        r3,[r3,#0x0]=>DAT_40023800
        080010ce 13 f4 00 3f     tst        r3,#0x20000
                             LAB_080010d2                                    XREF[2]:     08001112(j), 08001118(j)  
        080010d2 a8 d0           beq        LAB_08001026
        080010d4 1a 4e           ldr        r6,[DAT_08001140]                                = 40023800h
        080010d6 b3 68           ldr        r3,[r6,#0x8]=>DAT_40023808
        080010d8 23 f0 03 03     bic        r3,r3,#0x3
        080010dc 13 43           orrs       r3,r2
        080010de b3 60           str        r3,[r6,#0x8]=>DAT_40023808
        080010e0 ff f7 84 fc     bl         HAL_GetTick                                      undefined HAL_GetTick()
        080010e4 41 f2 88 38     movw       r8,#0x1388
        080010e8 07 46           mov        r7,r0
                             LAB_080010ea                                    XREF[1]:     08001100(j)  
        080010ea b3 68           ldr        r3,[r6,#0x8]=>DAT_40023808
        080010ec 62 68           ldr        r2,[r4,#0x4]
        080010ee 03 f0 0c 03     and        r3,r3,#0xc
        080010f2 b3 eb 82 0f     cmp.w      r3,r2, lsl #0x2
        080010f6 a4 d0           beq        LAB_08001042
        080010f8 ff f7 78 fc     bl         HAL_GetTick                                      undefined HAL_GetTick()
        080010fc c0 1b           subs       r0,r0,r7
        080010fe 40 45           cmp        r0,r8
        08001100 f3 d9           bls        LAB_080010ea
        08001102 03 20           movs       r0,#0x3
        08001104 90 e7           b          LAB_08001028
                             LAB_08001106                                    XREF[1]:     080010ca(j)  
        08001106 91 1e           subs       r1,r2,#0x2
        08001108 01 29           cmp        r1,#0x1
        0800110a 1b 68           ldr        r3,[r3,#0x0]=>DAT_40023800
        0800110c 02 d8           bhi        LAB_08001114
        0800110e 13 f0 00 7f     tst        r3,#0x2000000
        08001112 de e7           b          LAB_080010d2
                             LAB_08001114                                    XREF[1]:     0800110c(j)  
        08001114 13 f0 02 0f     tst        r3,#0x2
        08001118 db e7           b          LAB_080010d2
                             LAB_0800111a                                    XREF[1]:     0800104c(j)  
        0800111a ea b2           uxtb       r2,r5
        0800111c 1a 70           strb       r2,[r3,#0x0]=>DAT_40023c00
        0800111e 1b 68           ldr        r3,[r3,#0x0]=>DAT_40023c00
        08001120 03 f0 07 03     and        r3,r3,#0x7
        08001124 ab 42           cmp        r3,r5
        08001126 7f f4 7e af     bne.w      LAB_08001026
        0800112a 90 e7           b          LAB_0800104e
                             LAB_0800112c                                    XREF[1]:     08001052(j)  
        0800112c 04 49           ldr        r1,[DAT_08001140]                                = 40023800h
        0800112e e0 68           ldr        r0,[r4,#0xc]
        08001130 8b 68           ldr        r3,[r1,#0x8]=>DAT_40023808
        08001132 23 f4 e0 53     bic        r3,r3,#0x1c00
        08001136 03 43           orrs       r3,r0
        08001138 8b 60           str        r3,[r1,#0x8]=>DAT_40023808
        0800113a 8b e7           b          LAB_08001054
                             DAT_0800113c                                    XREF[2]:     HAL_RCC_ClockConfig:0800102c(R), 
                                                                                          HAL_RCC_ClockConfig:08001042(R)  
        0800113c 00 3c 02 40     undefined4 40023C00h
                             DAT_08001140                                    XREF[6]:     HAL_RCC_ClockConfig:08001058(R), 
                                                                                          HAL_RCC_ClockConfig:0800106c(R), 
                                                                                          HAL_RCC_ClockConfig:0800109a(R), 
                                                                                          HAL_RCC_ClockConfig:080010c6(R), 
                                                                                          HAL_RCC_ClockConfig:080010d4(R), 
                                                                                          HAL_RCC_ClockConfig:0800112c(R)  
        08001140 00 38 02 40     undefined4 40023800h
                             DAT_08001144                                    XREF[1]:     HAL_RCC_ClockConfig:0800106e(R)  
        08001144 8a 14 00 08     undefined4 0800148Ah                                        ?  ->  0800148a
                             DAT_08001148                                    XREF[1]:     HAL_RCC_ClockConfig:0800107a(R)  
        08001148 20 00 00 20     undefined4 20000020h                                        ?  ->  20000020
                             DAT_0800114c                                    XREF[1]:     HAL_RCC_ClockConfig:0800107e(R)  
        0800114c 28 00 00 20     undefined4 20000028h                                        ?  ->  20000028
                             **************************************************************
                             *                          FUNCTION                          *
                             **************************************************************
                             undefined HAL_RCC_GetPCLK1Freq()
                               assume LRset = 0x0
                               assume TMode = 0x1
             undefined         <UNASSIGNED>   <RETURN>
                             HAL_RCC_GetPCLK1Freq                            XREF[2]:     Entry Point(*), 
                                                                                          UART_SetConfig:0800127e(c)  
        08001150 04 4b           ldr        r3,[DAT_08001164]                                = 40023800h
        08001152 05 4a           ldr        r2,[DAT_08001168]                                = 08001482h
        08001154 9b 68           ldr        r3,[r3,#0x8]=>DAT_40023808
        08001156 c3 f3 82 23     ubfx       r3,r3,#0xa,#0x3
        0800115a d3 5c           ldrb       r3,[r2,r3]=>APBPrescTable
        0800115c 03 4a           ldr        r2,[DAT_0800116c]                                = 20000020h
        0800115e 10 68           ldr        r0,[r2,#0x0]=>SystemCoreClock                    = 00F42400h
        08001160 d8 40           lsrs       r0,r3
        08001162 70 47           bx         lr
                             DAT_08001164                                    XREF[1]:     HAL_RCC_GetPCLK1Freq:08001150(R)  
        08001164 00 38 02 40     undefined4 40023800h
                             DAT_08001168                                    XREF[1]:     HAL_RCC_GetPCLK1Freq:08001152(R)  
        08001168 82 14 00 08     undefined4 08001482h                                        ?  ->  08001482
                             DAT_0800116c                                    XREF[1]:     HAL_RCC_GetPCLK1Freq:0800115c(R)  
        0800116c 20 00 00 20     undefined4 20000020h                                        ?  ->  20000020
                             **************************************************************
                             *                          FUNCTION                          *
                             **************************************************************
                             undefined HAL_RCC_GetPCLK2Freq()
                               assume LRset = 0x0
                               assume TMode = 0x1
             undefined         <UNASSIGNED>   <RETURN>
                             HAL_RCC_GetPCLK2Freq                            XREF[2]:     Entry Point(*), 
                                                                                          UART_SetConfig:08001234(c)  
        08001170 04 4b           ldr        r3,[DAT_08001184]                                = 40023800h
        08001172 05 4a           ldr        r2,[DAT_08001188]                                = 08001482h
        08001174 9b 68           ldr        r3,[r3,#0x8]=>DAT_40023808
        08001176 c3 f3 42 33     ubfx       r3,r3,#0xd,#0x3
        0800117a d3 5c           ldrb       r3,[r2,r3]=>APBPrescTable
        0800117c 03 4a           ldr        r2,[DAT_0800118c]                                = 20000020h
        0800117e 10 68           ldr        r0,[r2,#0x0]=>SystemCoreClock                    = 00F42400h
        08001180 d8 40           lsrs       r0,r3
        08001182 70 47           bx         lr
                             DAT_08001184                                    XREF[1]:     HAL_RCC_GetPCLK2Freq:08001170(R)  
        08001184 00 38 02 40     undefined4 40023800h
                             DAT_08001188                                    XREF[1]:     HAL_RCC_GetPCLK2Freq:08001172(R)  
        08001188 82 14 00 08     undefined4 08001482h                                        ?  ->  08001482
                             DAT_0800118c                                    XREF[1]:     HAL_RCC_GetPCLK2Freq:0800117c(R)  
        0800118c 20 00 00 20     undefined4 20000020h                                        ?  ->  20000020
                             **************************************************************
                             *                          FUNCTION                          *
                             **************************************************************
                             undefined UART_EndRxTransfer()
                               assume LRset = 0x0
                               assume TMode = 0x1
             undefined         <UNASSIGNED>   <RETURN>
                             UART_EndRxTransfer                              XREF[2]:     080011a8(j), 
                                                                                          UART_WaitOnFlagUntilTimeout.cons
        08001190 02 68           ldr        r2,[r0,#0x0]
        08001192 02 f1 0c 03     add.w      r3,r2,#0xc
        08001196 53 e8 00 3f     ldrex      r3,[r3,#0x0]
        0800119a 23 f4 90 73     bic        r3,r3,#0x120
        0800119e 0c 32           adds       r2,#0xc
        080011a0 42 e8 00 31     strex      r1,r3,[r2,#0x0]
        080011a4 02 68           ldr        r2,[r0,#0x0]
        080011a6 00 29           cmp        r1,#0x0
        080011a8 f2 d1           bne        UART_EndRxTransfer
                             LAB_080011aa                                    XREF[1]:     080011c0(j)  
        080011aa 02 f1 14 03     add.w      r3,r2,#0x14
        080011ae 53 e8 00 3f     ldrex      r3,[r3,#0x0]
        080011b2 23 f0 01 03     bic        r3,r3,#0x1
        080011b6 02 f1 14 0c     add.w      r12,r2,#0x14
        080011ba 4c e8 00 31     strex      r1,r3,[r12,#0x0]
        080011be 00 29           cmp        r1,#0x0
        080011c0 f3 d1           bne        LAB_080011aa
        080011c2 03 6b           ldr        r3,[r0,#0x30]
        080011c4 01 2b           cmp        r3,#0x1
        080011c6 0b d1           bne        LAB_080011e0
                             LAB_080011c8                                    XREF[1]:     080011de(j)  
        080011c8 02 f1 0c 03     add.w      r3,r2,#0xc
        080011cc 53 e8 00 3f     ldrex      r3,[r3,#0x0]
        080011d0 23 f0 10 03     bic        r3,r3,#0x10
        080011d4 02 f1 0c 0c     add.w      r12,r2,#0xc
        080011d8 4c e8 00 31     strex      r1,r3,[r12,#0x0]
        080011dc 00 29           cmp        r1,#0x0
        080011de f3 d1           bne        LAB_080011c8
                             LAB_080011e0                                    XREF[1]:     080011c6(j)  
        080011e0 20 23           movs       r3,#0x20
        080011e2 80 f8 42 30     strb.w     r3,[r0,#0x42]
        080011e6 00 23           movs       r3,#0x0
        080011e8 03 63           str        r3,[r0,#0x30]
        080011ea 70 47           bx         lr
                             **************************************************************
                             *                          FUNCTION                          *
                             **************************************************************
                             undefined UART_SetConfig()
                               assume LRset = 0x0
                               assume TMode = 0x1
             undefined         <UNASSIGNED>   <RETURN>
                             UART_SetConfig                                  XREF[1]:     HAL_UART_Init:08001336(c)  
        080011ec 02 68           ldr        r2,[r0,#0x0]
        080011ee c1 68           ldr        r1,[r0,#0xc]
        080011f0 38 b5           push       {r3,r4,r5,lr}
        080011f2 13 69           ldr        r3,[r2,#0x10]
        080011f4 23 f4 40 53     bic        r3,r3,#0x3000
        080011f8 0b 43           orrs       r3,r1
        080011fa 13 61           str        r3,[r2,#0x10]
        080011fc 05 46           mov        r5,r0
        080011fe 83 68           ldr        r3,[r0,#0x8]
        08001200 00 69           ldr        r0,[r0,#0x10]
        08001202 d1 68           ldr        r1,[r2,#0xc]
        08001204 03 43           orrs       r3,r0
        08001206 68 69           ldr        r0,[r5,#0x14]
        08001208 03 43           orrs       r3,r0
        0800120a e8 69           ldr        r0,[r5,#0x1c]
        0800120c 21 f4 16 41     bic        r1,r1,#0x9600
        08001210 21 f0 0c 01     bic        r1,r1,#0xc
        08001214 03 43           orrs       r3,r0
        08001216 0b 43           orrs       r3,r1
        08001218 d3 60           str        r3,[r2,#0xc]
        0800121a 53 69           ldr        r3,[r2,#0x14]
        0800121c a9 69           ldr        r1,[r5,#0x18]
        0800121e 23 f4 40 73     bic        r3,r3,#0x300
        08001222 0b 43           orrs       r3,r1
        08001224 53 61           str        r3,[r2,#0x14]
        08001226 1f 4b           ldr        r3,[DAT_080012a4]                                = 40011000h
        08001228 9a 42           cmp        r2,r3
        0800122a 03 d0           beq        LAB_08001234
        0800122c 03 f5 80 63     add.w      r3,r3,#0x400
        08001230 9a 42           cmp        r2,r3
        08001232 24 d1           bne        LAB_0800127e
                             LAB_08001234                                    XREF[1]:     0800122a(j)  
        08001234 ff f7 9c ff     bl         HAL_RCC_GetPCLK2Freq                             undefined HAL_RCC_GetPCLK2Freq()
                             LAB_08001238                                    XREF[1]:     08001282(j)  
        08001238 ea 69           ldr        r2,[r5,#0x1c]
        0800123a 19 21           movs       r1,#0x19
        0800123c b2 f5 00 4f     cmp.w      r2,#0x8000
        08001240 d5 e9 00 43     ldrd       r4,r3,[r5,#0x0]
        08001244 a0 fb 01 01     umull      r0,r1,r0,r1
        08001248 1c d1           bne        LAB_08001284
        0800124a da 18           adds       r2,r3,r3
        0800124c 4f f0 00 05     mov.w      r5,#0x0
        08001250 45 eb 05 03     adc.w      r3,r5,r5
        08001254 fe f7 b8 ff     bl         __aeabi_uldivmod                                 undefined __aeabi_uldivmod()
        08001258 64 22           movs       r2,#0x64
        0800125a b0 fb f2 f1     udiv       r1,r0,r2
        0800125e 02 fb 11 03     mls        r3,r2,r1,r0
        08001262 db 00           lsls       r3,r3,#0x3
        08001264 32 33           adds       r3,#0x32
        08001266 b3 fb f2 f3     udiv       r3,r3,r2
        0800126a 03 f0 07 02     and        r2,r3,#0x7
        0800126e 5b 00           lsls       r3,r3,#0x1
        08001270 02 eb 01 12     add.w      r2,r2,r1, lsl #0x4
        08001274 03 f4 f8 73     and        r3,r3,#0x1f0
        08001278 13 44           add        r3,r2
                             LAB_0800127a                                    XREF[1]:     080012a2(j)  
        0800127a a3 60           str        r3,[r4,#0x8]
        0800127c 38 bd           pop        {r3,r4,r5,pc}
                             LAB_0800127e                                    XREF[1]:     08001232(j)  
        0800127e ff f7 67 ff     bl         HAL_RCC_GetPCLK1Freq                             undefined HAL_RCC_GetPCLK1Freq()
        08001282 d9 e7           b          LAB_08001238
                             LAB_08001284                                    XREF[1]:     08001248(j)  
        08001284 9a 00           lsls       r2,r3,#0x2
        08001286 9b 0f           lsrs       r3,r3,#0x1e
        08001288 fe f7 9e ff     bl         __aeabi_uldivmod                                 undefined __aeabi_uldivmod()
        0800128c 64 22           movs       r2,#0x64
        0800128e b0 fb f2 f1     udiv       r1,r0,r2
        08001292 02 fb 11 03     mls        r3,r2,r1,r0
        08001296 1b 01           lsls       r3,r3,#0x4
        08001298 32 33           adds       r3,#0x32
        0800129a b3 fb f2 f3     udiv       r3,r3,r2
        0800129e 03 eb 01 13     add.w      r3,r3,r1, lsl #0x4
        080012a2 ea e7           b          LAB_0800127a
                             DAT_080012a4                                    XREF[1]:     UART_SetConfig:08001226(R)  
        080012a4 00 10 01 40     undefined4 40011000h
                             **************************************************************
                             *                          FUNCTION                          *
                             **************************************************************
                             undefined UART_WaitOnFlagUntilTimeout.constprop.0()
                               assume LRset = 0x0
                               assume TMode = 0x1
             undefined         <UNASSIGNED>   <RETURN>
             undefined4        Stack[-0x1c]:4 local_1c                                XREF[4]:     080012e8(W), 
                                                                                                   080012ec(W), 
                                                                                                   080012f0(W), 
                                                                                                   080012f4(R)  
                             UART_WaitOnFlagUntilTimeout.constprop.0         XREF[2]:     HAL_UART_Transmit:080013b8(c), 
                                                                                          HAL_UART_Transmit:080013ce(c)  
        080012a8 f7 b5           push       {r0,r1,r2,r4,r5,r6,r7,lr}
        080012aa 05 46           mov        r5,r0
        080012ac 0c 46           mov        r4,r1
        080012ae 17 46           mov        r7,r2
        080012b0 1e 46           mov        r6,r3
                             LAB_080012b2                                    XREF[4]:     080012d6(j), 080012da(j), 
                                                                                          080012de(j), 080012e4(j)  
        080012b2 2a 68           ldr        r2,[r5,#0x0]
                             LAB_080012b4                                    XREF[1]:     080012c2(j)  
        080012b4 13 68           ldr        r3,[r2,#0x0]
        080012b6 34 ea 03 03     bics.w     r3,r4,r3
        080012ba 01 d1           bne        LAB_080012c0
        080012bc 00 20           movs       r0,#0x0
        080012be 21 e0           b          LAB_08001304
                             LAB_080012c0                                    XREF[1]:     080012ba(j)  
        080012c0 70 1c           adds       r0,r6,#0x1
        080012c2 f7 d0           beq        LAB_080012b4
        080012c4 ff f7 92 fb     bl         HAL_GetTick                                      undefined HAL_GetTick()
        080012c8 c0 1b           subs       r0,r0,r7
        080012ca 86 42           cmp        r6,r0
        080012cc 1c d3           bcc        LAB_08001308
        080012ce de b1           cbz        r6,LAB_08001308
        080012d0 2b 68           ldr        r3,[r5,#0x0]
        080012d2 da 68           ldr        r2,[r3,#0xc]
        080012d4 51 07           lsls       r1,r2,#0x1d
        080012d6 ec d5           bpl        LAB_080012b2
        080012d8 80 2c           cmp        r4,#0x80
        080012da ea d0           beq        LAB_080012b2
        080012dc 40 2c           cmp        r4,#0x40
        080012de e8 d0           beq        LAB_080012b2
        080012e0 1a 68           ldr        r2,[r3,#0x0]
        080012e2 12 07           lsls       r2,r2,#0x1c
        080012e4 e5 d5           bpl        LAB_080012b2
        080012e6 00 24           movs       r4,#0x0
        080012e8 01 94           str        r4,[sp,#local_1c]
        080012ea 1a 68           ldr        r2,[r3,#0x0]
        080012ec 01 92           str        r2,[sp,#local_1c]
        080012ee 5b 68           ldr        r3,[r3,#0x4]
        080012f0 01 93           str        r3,[sp,#local_1c]
        080012f2 28 46           mov        r0,r5
        080012f4 01 9b           ldr        r3,[sp,#local_1c]
        080012f6 ff f7 4b ff     bl         UART_EndRxTransfer                               undefined UART_EndRxTransfer()
        080012fa 08 23           movs       r3,#0x8
        080012fc 6b 64           str        r3,[r5,#0x44]
        080012fe 85 f8 40 40     strb.w     r4,[r5,#0x40]
        08001302 01 20           movs       r0,#0x1
                             LAB_08001304                                    XREF[2]:     080012be(j), 0800130a(j)  
        08001304 03 b0           add        sp,#0xc
        08001306 f0 bd           pop        {r4,r5,r6,r7,pc}
                             LAB_08001308                                    XREF[2]:     080012cc(j), 080012ce(j)  
        08001308 03 20           movs       r0,#0x3
        0800130a fb e7           b          LAB_08001304
                             **************************************************************
                             *                          FUNCTION                          *
                             **************************************************************
                             undefined HAL_UART_Init()
                               assume LRset = 0x0
                               assume TMode = 0x1
             undefined         <UNASSIGNED>   <RETURN>
                             HAL_UART_Init                                   XREF[2]:     Entry Point(*), main:08000750(c)  
        0800130c 10 b5           push       {r4,lr}
        0800130e 04 46           mov        r4,r0
        08001310 48 b3           cbz        r0,LAB_08001366
        08001312 90 f8 41 30     ldrb.w     r3,[r0,#0x41]
        08001316 03 f0 ff 02     and        r2,r3,#0xff
        0800131a 1b b9           cbnz       r3,LAB_08001324
        0800131c 80 f8 40 20     strb.w     r2,[r0,#0x40]
        08001320 ff f7 90 fa     bl         HAL_UART_MspInit                                 undefined HAL_UART_MspInit()
                             LAB_08001324                                    XREF[1]:     0800131a(j)  
        08001324 22 68           ldr        r2,[r4,#0x0]
        08001326 24 23           movs       r3,#0x24
        08001328 84 f8 41 30     strb.w     r3,[r4,#0x41]
        0800132c d3 68           ldr        r3,[r2,#0xc]
        0800132e 23 f4 00 53     bic        r3,r3,#0x2000
        08001332 d3 60           str        r3,[r2,#0xc]
        08001334 20 46           mov        r0,r4
        08001336 ff f7 59 ff     bl         UART_SetConfig                                   undefined UART_SetConfig()
        0800133a 23 68           ldr        r3,[r4,#0x0]
        0800133c 1a 69           ldr        r2,[r3,#0x10]
        0800133e 22 f4 90 42     bic        r2,r2,#0x4800
        08001342 1a 61           str        r2,[r3,#0x10]
        08001344 5a 69           ldr        r2,[r3,#0x14]
        08001346 22 f0 2a 02     bic        r2,r2,#0x2a
        0800134a 5a 61           str        r2,[r3,#0x14]
        0800134c da 68           ldr        r2,[r3,#0xc]
        0800134e 42 f4 00 52     orr        r2,r2,#0x2000
        08001352 da 60           str        r2,[r3,#0xc]
        08001354 00 20           movs       r0,#0x0
        08001356 20 23           movs       r3,#0x20
        08001358 60 64           str        r0,[r4,#0x44]
        0800135a 84 f8 41 30     strb.w     r3,[r4,#0x41]
        0800135e 84 f8 42 30     strb.w     r3,[r4,#0x42]
        08001362 60 63           str        r0,[r4,#0x34]
                             LAB_08001364                                    XREF[1]:     08001368(j)  
        08001364 10 bd           pop        {r4,pc}
                             LAB_08001366                                    XREF[1]:     08001310(j)  
        08001366 01 20           movs       r0,#0x1
        08001368 fc e7           b          LAB_08001364
                             **************************************************************
                             *                          FUNCTION                          *
                             **************************************************************
                             undefined HAL_UART_Transmit()
                               assume LRset = 0x0
                               assume TMode = 0x1
             undefined         <UNASSIGNED>   <RETURN>
                             HAL_UART_Transmit                               XREF[3]:     Entry Point(*), main:08000766(c), 
                                                                                          main:080007d2(c)  
        0800136a 2d e9 f8 43     push       {r3,r4,r5,r6,r7,r8,r9,lr}
        0800136e 98 46           mov        r8,r3
        08001370 90 f8 41 30     ldrb.w     r3,[r0,#0x41]
        08001374 20 2b           cmp        r3,#0x20
        08001376 04 46           mov        r4,r0
        08001378 0e 46           mov        r6,r1
        0800137a 17 46           mov        r7,r2
        0800137c 3f d1           bne        LAB_080013fe
        0800137e 00 29           cmp        r1,#0x0
        08001380 3f d0           beq        LAB_08001402
        08001382 00 2a           cmp        r2,#0x0
        08001384 3d d0           beq        LAB_08001402
        08001386 21 23           movs       r3,#0x21
        08001388 00 25           movs       r5,#0x0
        0800138a 45 64           str        r5,[r0,#0x44]
        0800138c 80 f8 41 30     strb.w     r3,[r0,#0x41]
        08001390 ff f7 2c fb     bl         HAL_GetTick                                      undefined HAL_GetTick()
        08001394 a3 68           ldr        r3,[r4,#0x8]
        08001396 a7 84           strh       r7,[r4,#0x24]
        08001398 b3 f5 80 5f     cmp.w      r3,#0x1000
        0800139c 81 46           mov        r9,r0
        0800139e e7 84           strh       r7,[r4,#0x26]
        080013a0 03 d1           bne        LAB_080013aa
        080013a2 23 69           ldr        r3,[r4,#0x10]
        080013a4 0b b9           cbnz       r3,LAB_080013aa
        080013a6 35 46           mov        r5,r6
        080013a8 1e 46           mov        r6,r3
                             LAB_080013aa                                    XREF[3]:     080013a0(j), 080013a4(j), 
                                                                                          080013f6(j)  
        080013aa e3 8c           ldrh       r3,[r4,#0x26]
        080013ac 9b b2           uxth       r3,r3
        080013ae 53 b9           cbnz       r3,LAB_080013c6
        080013b0 43 46           mov        r3,r8
        080013b2 4a 46           mov        r2,r9
        080013b4 40 21           movs       r1,#0x40
        080013b6 20 46           mov        r0,r4
        080013b8 ff f7 76 ff     bl         UART_WaitOnFlagUntilTimeout.constprop.0          undefined UART_WaitOnFlagUntilTi
        080013bc 20 23           movs       r3,#0x20
        080013be 50 b9           cbnz       r0,LAB_080013d6
        080013c0 84 f8 41 30     strb.w     r3,[r4,#0x41]
        080013c4 0a e0           b          LAB_080013dc
                             LAB_080013c6                                    XREF[1]:     080013ae(j)  
        080013c6 43 46           mov        r3,r8
        080013c8 4a 46           mov        r2,r9
        080013ca 80 21           movs       r1,#0x80
        080013cc 20 46           mov        r0,r4
        080013ce ff f7 6b ff     bl         UART_WaitOnFlagUntilTimeout.constprop.0          undefined UART_WaitOnFlagUntilTi
        080013d2 28 b1           cbz        r0,LAB_080013e0
        080013d4 20 23           movs       r3,#0x20
                             LAB_080013d6                                    XREF[1]:     080013be(j)  
        080013d6 84 f8 41 30     strb.w     r3,[r4,#0x41]
        080013da 03 20           movs       r0,#0x3
                             LAB_080013dc                                    XREF[3]:     080013c4(j), 08001400(j), 
                                                                                          08001404(j)  
        080013dc bd e8 f8 83     pop.w      {r3,r4,r5,r6,r7,r8,r9,pc}
                             LAB_080013e0                                    XREF[1]:     080013d2(j)  
        080013e0 22 68           ldr        r2,[r4,#0x0]
        080013e2 4e b9           cbnz       r6,LAB_080013f8
        080013e4 35 f8 02 3b     ldrh.w     r3,[r5],#0x2
        080013e8 c3 f3 08 03     ubfx       r3,r3,#0x0,#0x9
                             LAB_080013ec                                    XREF[1]:     080013fc(j)  
        080013ec 53 60           str        r3,[r2,#0x4]
        080013ee e1 8c           ldrh       r1,[r4,#0x26]
        080013f0 01 39           subs       r1,#0x1
        080013f2 89 b2           uxth       r1,r1
        080013f4 e1 84           strh       r1,[r4,#0x26]
        080013f6 d8 e7           b          LAB_080013aa
                             LAB_080013f8                                    XREF[1]:     080013e2(j)  
        080013f8 16 f8 01 3b     ldrb.w     r3,[r6],#0x1
        080013fc f6 e7           b          LAB_080013ec
                             LAB_080013fe                                    XREF[1]:     0800137c(j)  
        080013fe 02 20           movs       r0,#0x2
        08001400 ec e7           b          LAB_080013dc
                             LAB_08001402                                    XREF[2]:     08001380(j), 08001384(j)  
        08001402 01 20           movs       r0,#0x1
        08001404 ea e7           b          LAB_080013dc
                             **************************************************************
                             *                          FUNCTION                          *
                             **************************************************************
                             void * __stdcall memset(void * __s, int __c, size_t __n)
                               assume LRset = 0x0
                               assume TMode = 0x1
             void *            r0:4           <RETURN>
             void *            r0:4           __s
             int               r1:4           __c
             size_t            r2:4           __n
                             memset                                          XREF[6]:     Entry Point(*), 
                                                                                          SystemClock_Config:080004c2(c), 
                                                                                          SystemClock_Config:080004cc(c), 
                                                                                          main:08000570(c), 
                                                                                          HAL_UART_MspInit:08000850(c), 
                                                                                          .debug_frame::00000018(*)  
        08001406 02 44           add        __n,__s
        08001408 03 46           mov        r3,__s
                             LAB_0800140a                                    XREF[1]:     08001414(j)  
        0800140a 93 42           cmp        r3,__n
        0800140c 00 d1           bne        LAB_08001410
        0800140e 70 47           bx         lr
                             LAB_08001410                                    XREF[1]:     0800140c(j)  
        08001410 03 f8 01 1b     strb.w     __c,[r3],#0x1
        08001414 f9 e7           b          LAB_0800140a
        08001416 00              ??         00h
        08001417 00              ??         00h
                             **************************************************************
                             *                          FUNCTION                          *
                             **************************************************************
                             undefined __libc_init_array()
                               assume LRset = 0x0
                               assume TMode = 0x1
             undefined         <UNASSIGNED>   <RETURN>
                             __libc_init_array                               XREF[3]:     Entry Point(*), 
                                                                                          Reset_Handler:08000932(c), 
                                                                                          .debug_frame::00000038(*)  
        08001418 70 b5           push       {r4,r5,r6,lr}
        0800141a 0d 4d           ldr        r5,[DAT_08001450]                                = 080014A4h
        0800141c 0d 4c           ldr        r4,[DAT_08001454]                                = 080014A4h
        0800141e 64 1b           subs       r4,r4,r5
        08001420 a4 10           asrs       r4,r4,#0x2
        08001422 00 26           movs       r6,#0x0
                             LAB_08001424                                    XREF[1]:     08001444(j)  
        08001424 a6 42           cmp        r6,r4
        08001426 09 d1           bne        LAB_0800143c
        08001428 0b 4d           ldr        r5,[DAT_08001458]                                = 080014A4h
        0800142a 0c 4c           ldr        r4,[DAT_0800145c]                                = 080014A8h
        0800142c 00 f0 18 f8     bl         _init                                            int _init(EVP_PKEY_CTX * ctx)
        08001430 64 1b           subs       r4,r4,r5
        08001432 a4 10           asrs       r4,r4,#0x2
        08001434 00 26           movs       r6,#0x0
                             LAB_08001436                                    XREF[1]:     0800144e(j)  
        08001436 a6 42           cmp        r6,r4
        08001438 05 d1           bne        LAB_08001446
        0800143a 70 bd           pop        {r4,r5,r6,pc}
                             LAB_0800143c                                    XREF[1]:     08001426(j)  
        0800143c 55 f8 04 3b     ldr.w      r3=>frame_dummy+1,[r5],#0x4=>__frame_dummy_ini   = 080001ADh
        08001440 98 47           blx        r3=>frame_dummy                                  undefined frame_dummy()
        08001442 01 36           adds       r6,#0x1
        08001444 ee e7           b          LAB_08001424
                             LAB_08001446                                    XREF[1]:     08001438(j)  
        08001446 55 f8 04 3b     ldr.w      r3=>frame_dummy+1,[r5],#0x4=>__frame_dummy_ini   = 080001ADh
        0800144a 98 47           blx        r3=>frame_dummy                                  undefined frame_dummy()
        0800144c 01 36           adds       r6,#0x1
        0800144e f2 e7           b          LAB_08001436
                             DAT_08001450                                    XREF[1]:     __libc_init_array:0800141a(R)  
        08001450 a4 14 00 08     undefined4 080014A4h                                        ?  ->  080014a4
                             DAT_08001454                                    XREF[1]:     __libc_init_array:0800141c(R)  
        08001454 a4 14 00 08     undefined4 080014A4h                                        ?  ->  080014a4
                             DAT_08001458                                    XREF[1]:     __libc_init_array:08001428(R)  
        08001458 a4 14 00 08     undefined4 080014A4h                                        ?  ->  080014a4
                             DAT_0800145c                                    XREF[1]:     __libc_init_array:0800142a(R)  
        0800145c a8 14 00 08     undefined4 080014A8h                                        ?  ->  080014a8
                             **************************************************************
                             *                          FUNCTION                          *
                             **************************************************************
                             int __stdcall _init(EVP_PKEY_CTX * ctx)
                               assume LRset = 0x0
                               assume TMode = 0x1
             int               r0:4           <RETURN>
             EVP_PKEY_CTX *    r0:4           ctx
                             __EH_FRAME_BEGIN__                              XREF[4]:     Entry Point(*), 
                             _init                                                        __do_global_dtors_aux:08000194(*
                                                                                          frame_dummy:080001b4(*), 
                                                                                          __libc_init_array:0800142c(c)  
        08001460 f8 b5           push       {r3,r4,r5,r6,r7,lr}
        08001462 00 bf           nop
        08001464 f8 bc           pop        {r3,r4,r5,r6,r7}
        08001466 08 bc           pop        {r3}
        08001468 9e 46           mov        lr,r3
        0800146a 70 47           bx         lr
                             **************************************************************
                             *                          FUNCTION                          *
                             **************************************************************
                             undefined _fini()
                               assume LRset = 0x0
                               assume TMode = 0x1
             undefined         <UNASSIGNED>   <RETURN>
                             _fini                                           XREF[1]:     Entry Point(*)  
        0800146c f8 b5           push       {r3,r4,r5,r6,r7,lr}
        0800146e 00 bf           nop
        08001470 f8 bc           pop        {r3,r4,r5,r6,r7}
        08001472 08 bc           pop        {r3}
        08001474 9e 46           mov        lr,r3
        08001476 70 47           bx         lr
                             //
                             // .rodata 
                             // SHT_PROGBITS  [0x8001478 - 0x800149b]
                             // ram:08001478-ram:0800149b
                             //
                             _etext                                          XREF[3]:     Entry Point(*), main:080007bc(R), 
                                                                                          _elfSectionHeaders::00000084(*)  
        08001478 46 49 4e 49     undefined4 494E4946h
                             DAT_0800147c                                    XREF[1]:     main:080007be(R)  
        0800147c 53 48 45 44     undefined4 44454853h
                             DAT_08001480                                    XREF[1]:     main:080007c0(R)  
        08001480 0a 00           undefined2 000Ah
                             APBPrescTable                                   XREF[3]:     Entry Point(*), 
                                                                                          HAL_RCC_GetPCLK1Freq:0800115a(*), 
                                                                                          HAL_RCC_GetPCLK2Freq:0800117a(*)  
        08001482 00              undefined1 00h
        08001483 00              ??         00h
        08001484 00              ??         00h
        08001485 00              ??         00h
        08001486 01              ??         01h
        08001487 02              ??         02h
        08001488 03              ??         03h
        08001489 04              ??         04h
                             AHBPrescTable                                   XREF[3]:     Entry Point(*), 
                                                                                          HAL_RCC_ClockConfig:0800106e(*), 
                                                                                          HAL_RCC_ClockConfig:08001076(*)  
        0800148a 00              undefined1 00h
        0800148b 00              ??         00h
        0800148c 00              ??         00h
        0800148d 00              ??         00h
        0800148e 00              ??         00h
        0800148f 00              ??         00h
        08001490 00              ??         00h
        08001491 00              ??         00h
        08001492 01              ??         01h
        08001493 02              ??         02h
        08001494 03              ??         03h
        08001495 04              ??         04h
        08001496 06              ??         06h
        08001497 07              ??         07h
        08001498 08              ??         08h
        08001499 09              ??         09h
        0800149a 00              ??         00h
        0800149b 00              ??         00h
                             //
                             // .ARM 
                             // SHT_ARM_EXIDX  [0x800149c - 0x80014a3]
                             // ram:0800149c-ram:080014a3
                             //
                             __exidx_start                                   XREF[2]:     Entry Point(*), 
                                                                                          _elfSectionHeaders::000000d4(*)  
        0800149c 5c              undefined1 5Ch
        0800149d ed              ??         EDh
        0800149e ff              ??         FFh
        0800149f 7f              ??         7Fh    
        080014a0 01              ??         01h
        080014a1 00              ??         00h
        080014a2 00              ??         00h
        080014a3 00              ??         00h
                             //
                             // .init_array 
                             // SHT_INIT_ARRAY  [0x80014a4 - 0x80014a7]
                             // ram:080014a4-ram:080014a7
                             //
                             __preinit_array_end                             XREF[5]:     Entry Point(*), 
                             __init_array_start                                           __libc_init_array:0800143c(R), 
                             __preinit_array_start                                        __libc_init_array:08001446(R), 
                             __exidx_end                                                  _elfSectionHeaders::000000fc(*), 
                             __frame_dummy_init_array_entry                               _elfSectionHeaders::00000124(*)  
        080014a4 ad 01 00 08     undefined4 080001ADh                                        ?  ->  080001ad
                             //
                             // .fini_array 
                             // SHT_FINI_ARRAY  [0x80014a8 - 0x80014ab]
                             // ram:080014a8-ram:080014ab
                             //
                             __init_array_end                                XREF[1]:     _elfSectionHeaders::0000014c(*)  
                             __do_global_dtors_aux_fini_array_entry
        080014a8 89              undefined1 89h                                              ?  ->  08000189
        080014a9 01              ??         01h
        080014aa 00              ??         00h
        080014ab 08              ??         08h
                             //
                             // .data 
                             // SHT_PROGBITS  [0x20000000 - 0x2000002b]
                             // ram:20000000-ram:2000002b
                             //
                             _sdata                                          XREF[6]:     Entry Point(*), main:0800075c(*), 
                             bruh.0                                                       Reset_Handler:0800090c(*), 
                                                                                          Reset_Handler:08000918(W), 
                                                                                          _elfProgramHeaders::00000028(*), 
                                                                                          _elfSectionHeaders::00000174(*)  
        20000000 55 53 42        ds         "USB initialized successfully\n"
                 20 69 6e 
                 69 74 69 
        2000001e 00              ??         00h
        2000001f 00              ??         00h
                             SystemCoreClock                                 XREF[6]:     Entry Point(*), 
                                                                                          HAL_InitTick:08000966(*), 
                                                                                          HAL_InitTick:0800096a(R), 
                                                                                          HAL_RCC_ClockConfig:0800107c(W), 
                                                                                          HAL_RCC_GetPCLK1Freq:0800115e(R), 
                                                                                          HAL_RCC_GetPCLK2Freq:0800117e(R)  
        20000020 00 24 f4 00     undefined4 00F42400h
                             uwTickFreq                                      XREF[3]:     Entry Point(*), 
                                                                                          HAL_InitTick:0800095c(R), 
                                                                                          HAL_IncTick:080009da(R)  
        20000024 01              undefined1 01h
        20000025 00              ??         00h
        20000026 00              ??         00h
        20000027 00              ??         00h
                             uwTickPrio                                      XREF[4]:     Entry Point(*), 
                                                                                          HAL_InitTick:0800098c(W), 
                                                                                          HAL_RCC_ClockConfig:0800107e(*), 
                                                                                          HAL_RCC_ClockConfig:08001080(R)  
        20000028 10 00 00 00     undefined4 00000010h
                             //
                             // .bss 
                             // SHT_NOBITS  [0x2000002c - 0x20000093]
                             // ram:2000002c-ram:20000093
                             //
                             _sbss                                           XREF[8]:     Entry Point(*), 
                             __bss_start__                                                __do_global_dtors_aux:0800018c(R
                             _edata                                                       __do_global_dtors_aux:0800019c(W
                             completed.1                                                  Reset_Handler:0800090e(*), 
                                                                                          Reset_Handler:08000922(*), 
                                                                                          Reset_Handler:0800092a(W), 
                                                                                          _elfProgramHeaders::00000048(*), 
                                                                                          _elfSectionHeaders::000001c4(*)  
        2000002c                 undefined4 ??
                             object.0
        20000030                 ??         ??
        20000031                 ??         ??
        20000032                 ??         ??
        20000033                 ??         ??
        20000034                 ??         ??
        20000035                 ??         ??
        20000036                 ??         ??
        20000037                 ??         ??
        20000038                 ??         ??
        20000039                 ??         ??
        2000003a                 ??         ??
        2000003b                 ??         ??
        2000003c                 ??         ??
        2000003d                 ??         ??
        2000003e                 ??         ??
        2000003f                 ??         ??
        20000040                 ??         ??
        20000041                 ??         ??
        20000042                 ??         ??
        20000043                 ??         ??
        20000044                 ??         ??
        20000045                 ??         ??
        20000046                 ??         ??
        20000047                 ??         ??
                             huart4                                          XREF[5]:     Entry Point(*), main:0800073e(W), 
                                                                                          main:08000742(*), 
                                                                                          main:08000764(*), 
                                                                                          main:080007ca(*)  
        20000048                 undefined4 ??
                             DAT_2000004c                                    XREF[1]:     main:0800073e(W)  
        2000004c                 undefined4 ??
                             DAT_20000050                                    XREF[1]:     main:08000746(W)  
        20000050                 undefined4 ??
                             DAT_20000054                                    XREF[1]:     main:08000746(W)  
        20000054                 undefined4 ??
                             DAT_20000058                                    XREF[1]:     main:08000738(W)  
        20000058                 undefined4 ??
                             DAT_2000005c                                    XREF[1]:     main:0800074a(W)  
        2000005c                 undefined4 ??
                             DAT_20000060                                    XREF[1]:     main:0800074a(W)  
        20000060                 undefined4 ??
                             DAT_20000064                                    XREF[1]:     main:0800074e(W)  
        20000064                 undefined4 ??
        20000068                 ??         ??
        20000069                 ??         ??
        2000006a                 ??         ??
        2000006b                 ??         ??
        2000006c                 ??         ??
        2000006d                 ??         ??
        2000006e                 ??         ??
        2000006f                 ??         ??
        20000070                 ??         ??
        20000071                 ??         ??
        20000072                 ??         ??
        20000073                 ??         ??
        20000074                 ??         ??
        20000075                 ??         ??
        20000076                 ??         ??
        20000077                 ??         ??
        20000078                 ??         ??
        20000079                 ??         ??
        2000007a                 ??         ??
        2000007b                 ??         ??
        2000007c                 ??         ??
        2000007d                 ??         ??
        2000007e                 ??         ??
        2000007f                 ??         ??
        20000080                 ??         ??
        20000081                 ??         ??
        20000082                 ??         ??
        20000083                 ??         ??
        20000084                 ??         ??
        20000085                 ??         ??
        20000086                 ??         ??
        20000087                 ??         ??
        20000088                 ??         ??
        20000089                 ??         ??
        2000008a                 ??         ??
        2000008b                 ??         ??
        2000008c                 ??         ??
        2000008d                 ??         ??
        2000008e                 ??         ??
        2000008f                 ??         ??
                             uwTick                                          XREF[4]:     Entry Point(*), 
                                                                                          HAL_IncTick:080009d8(R), 
                                                                                          HAL_IncTick:080009de(W), 
                                                                                          HAL_GetTick:080009ee(R)  
        20000090                 undefined4 ??
                             //
                             // ._user_heap_stack 
                             // SHT_NOBITS  [0x20000094 - 0x20000697]
                             // ram:20000094-ram:20000697
                             //
                             __bss_end__                                     XREF[2]:     Entry Point(*), 
                             _ebss                                                        _elfSectionHeaders::000001ec(*)  
        20000094                 ??         ??
        20000095                 ??         ??
        20000096                 ??         ??
        20000097                 ??         ??
                             _end                                            XREF[1]:     Entry Point(*)  
        20000098                 ??         ??
        20000099                 ??         ??
        2000009a                 ??         ??
        2000009b                 ??         ??
        2000009c                 ??         ??
        2000009d                 ??         ??
        2000009e                 ??         ??
        2000009f                 ??         ??
        200000a0                 ??         ??
        200000a1                 ??         ??
        200000a2                 ??         ??
        200000a3                 ??         ??
        200000a4                 ??         ??
        200000a5                 ??         ??
        200000a6                 ??         ??
        200000a7                 ??         ??
        200000a8                 ??         ??
        200000a9                 ??         ??
        200000aa                 ??         ??
        200000ab                 ??         ??
        200000ac                 ??         ??
        200000ad                 ??         ??
        200000ae                 ??         ??
        200000af                 ??         ??
        200000b0                 ??         ??
        200000b1                 ??         ??
        200000b2                 ??         ??
        200000b3                 ??         ??
        200000b4                 ??         ??
        200000b5                 ??         ??
        200000b6                 ??         ??
        200000b7                 ??         ??
        200000b8                 ??         ??
        200000b9                 ??         ??
        200000ba                 ??         ??
        200000bb                 ??         ??
        200000bc                 ??         ??
        200000bd                 ??         ??
        200000be                 ??         ??
        200000bf                 ??         ??
        200000c0                 ??         ??
        200000c1                 ??         ??
        200000c2                 ??         ??
        200000c3                 ??         ??
        200000c4                 ??         ??
        200000c5                 ??         ??
        200000c6                 ??         ??
        200000c7                 ??         ??
        200000c8                 ??         ??
        200000c9                 ??         ??
        200000ca                 ??         ??
        200000cb                 ??         ??
        200000cc                 ??         ??
        200000cd                 ??         ??
        200000ce                 ??         ??
        200000cf                 ??         ??
        200000d0                 ??         ??
        200000d1                 ??         ??
        200000d2                 ??         ??
        200000d3                 ??         ??
        200000d4                 ??         ??
        200000d5                 ??         ??
        200000d6                 ??         ??
        200000d7                 ??         ??
        200000d8                 ??         ??
        200000d9                 ??         ??
        200000da                 ??         ??
        200000db                 ??         ??
        200000dc                 ??         ??
        200000dd                 ??         ??
        200000de                 ??         ??
        200000df                 ??         ??
        200000e0                 ??         ??
        200000e1                 ??         ??
        200000e2                 ??         ??
        200000e3                 ??         ??
        200000e4                 ??         ??
        200000e5                 ??         ??
        200000e6                 ??         ??
        200000e7                 ??         ??
        200000e8                 ??         ??
        200000e9                 ??         ??
        200000ea                 ??         ??
        200000eb                 ??         ??
        200000ec                 ??         ??
        200000ed                 ??         ??
        200000ee                 ??         ??
        200000ef                 ??         ??
        200000f0                 ??         ??
        200000f1                 ??         ??
        200000f2                 ??         ??
        200000f3                 ??         ??
        200000f4                 ??         ??
        200000f5                 ??         ??
        200000f6                 ??         ??
        200000f7                 ??         ??
        200000f8                 ??         ??
        200000f9                 ??         ??
        200000fa                 ??         ??
        200000fb                 ??         ??
        200000fc                 ??         ??
        200000fd                 ??         ??
        200000fe                 ??         ??
        200000ff                 ??         ??
        20000100                 ??         ??
        20000101                 ??         ??
        20000102                 ??         ??
        20000103                 ??         ??
        20000104                 ??         ??
        20000105                 ??         ??
        20000106                 ??         ??
        20000107                 ??         ??
        20000108                 ??         ??
        20000109                 ??         ??
        2000010a                 ??         ??
        2000010b                 ??         ??
        2000010c                 ??         ??
        2000010d                 ??         ??
        2000010e                 ??         ??
        2000010f                 ??         ??
        20000110                 ??         ??
        20000111                 ??         ??
        20000112                 ??         ??
        20000113                 ??         ??
        20000114                 ??         ??
        20000115                 ??         ??
        20000116                 ??         ??
        20000117                 ??         ??
        20000118                 ??         ??
        20000119                 ??         ??
        2000011a                 ??         ??
        2000011b                 ??         ??
        2000011c                 ??         ??
        2000011d                 ??         ??
        2000011e                 ??         ??
        2000011f                 ??         ??
        20000120                 ??         ??
        20000121                 ??         ??
        20000122                 ??         ??
        20000123                 ??         ??
        20000124                 ??         ??
        20000125                 ??         ??
        20000126                 ??         ??
        20000127                 ??         ??
        20000128                 ??         ??
        20000129                 ??         ??
        2000012a                 ??         ??
        2000012b                 ??         ??
        2000012c                 ??         ??
        2000012d                 ??         ??
        2000012e                 ??         ??
        2000012f                 ??         ??
        20000130                 ??         ??
        20000131                 ??         ??
        20000132                 ??         ??
        20000133                 ??         ??
        20000134                 ??         ??
        20000135                 ??         ??
        20000136                 ??         ??
        20000137                 ??         ??
        20000138                 ??         ??
        20000139                 ??         ??
        2000013a                 ??         ??
        2000013b                 ??         ??
        2000013c                 ??         ??
        2000013d                 ??         ??
        2000013e                 ??         ??
        2000013f                 ??         ??
        20000140                 ??         ??
        20000141                 ??         ??
        20000142                 ??         ??
        20000143                 ??         ??
        20000144                 ??         ??
        20000145                 ??         ??
        20000146                 ??         ??
        20000147                 ??         ??
        20000148                 ??         ??
        20000149                 ??         ??
        2000014a                 ??         ??
        2000014b                 ??         ??
        2000014c                 ??         ??
        2000014d                 ??         ??
        2000014e                 ??         ??
        2000014f                 ??         ??
        20000150                 ??         ??
        20000151                 ??         ??
        20000152                 ??         ??
        20000153                 ??         ??
        20000154                 ??         ??
        20000155                 ??         ??
        20000156                 ??         ??
        20000157                 ??         ??
        20000158                 ??         ??
        20000159                 ??         ??
        2000015a                 ??         ??
        2000015b                 ??         ??
        2000015c                 ??         ??
        2000015d                 ??         ??
        2000015e                 ??         ??
        2000015f                 ??         ??
        20000160                 ??         ??
        20000161                 ??         ??
        20000162                 ??         ??
        20000163                 ??         ??
        20000164                 ??         ??
        20000165                 ??         ??
        20000166                 ??         ??
        20000167                 ??         ??
        20000168                 ??         ??
        20000169                 ??         ??
        2000016a                 ??         ??
        2000016b                 ??         ??
        2000016c                 ??         ??
        2000016d                 ??         ??
        2000016e                 ??         ??
        2000016f                 ??         ??
        20000170                 ??         ??
        20000171                 ??         ??
        20000172                 ??         ??
        20000173                 ??         ??
        20000174                 ??         ??
        20000175                 ??         ??
        20000176                 ??         ??
        20000177                 ??         ??
        20000178                 ??         ??
        20000179                 ??         ??
        2000017a                 ??         ??
        2000017b                 ??         ??
        2000017c                 ??         ??
        2000017d                 ??         ??
        2000017e                 ??         ??
        2000017f                 ??         ??
        20000180                 ??         ??
        20000181                 ??         ??
        20000182                 ??         ??
        20000183                 ??         ??
        20000184                 ??         ??
        20000185                 ??         ??
        20000186                 ??         ??
        20000187                 ??         ??
        20000188                 ??         ??
        20000189                 ??         ??
        2000018a                 ??         ??
        2000018b                 ??         ??
        2000018c                 ??         ??
        2000018d                 ??         ??
        2000018e                 ??         ??
        2000018f                 ??         ??
        20000190                 ??         ??
        20000191                 ??         ??
        20000192                 ??         ??
        20000193                 ??         ??
        20000194                 ??         ??
        20000195                 ??         ??
        20000196                 ??         ??
        20000197                 ??         ??
        20000198                 ??         ??
        20000199                 ??         ??
        2000019a                 ??         ??
        2000019b                 ??         ??
        2000019c                 ??         ??
        2000019d                 ??         ??
        2000019e                 ??         ??
        2000019f                 ??         ??
        200001a0                 ??         ??
        200001a1                 ??         ??
        200001a2                 ??         ??
        200001a3                 ??         ??
        200001a4                 ??         ??
        200001a5                 ??         ??
        200001a6                 ??         ??
        200001a7                 ??         ??
        200001a8                 ??         ??
        200001a9                 ??         ??
        200001aa                 ??         ??
        200001ab                 ??         ??
        200001ac                 ??         ??
        200001ad                 ??         ??
        200001ae                 ??         ??
        200001af                 ??         ??
        200001b0                 ??         ??
        200001b1                 ??         ??
        200001b2                 ??         ??
        200001b3                 ??         ??
        200001b4                 ??         ??
        200001b5                 ??         ??
        200001b6                 ??         ??
        200001b7                 ??         ??
        200001b8                 ??         ??
        200001b9                 ??         ??
        200001ba                 ??         ??
        200001bb                 ??         ??
        200001bc                 ??         ??
        200001bd                 ??         ??
        200001be                 ??         ??
        200001bf                 ??         ??
        200001c0                 ??         ??
        200001c1                 ??         ??
        200001c2                 ??         ??
        200001c3                 ??         ??
        200001c4                 ??         ??
        200001c5                 ??         ??
        200001c6                 ??         ??
        200001c7                 ??         ??
        200001c8                 ??         ??
        200001c9                 ??         ??
        200001ca                 ??         ??
        200001cb                 ??         ??
        200001cc                 ??         ??
        200001cd                 ??         ??
        200001ce                 ??         ??
        200001cf                 ??         ??
        200001d0                 ??         ??
        200001d1                 ??         ??
        200001d2                 ??         ??
        200001d3                 ??         ??
        200001d4                 ??         ??
        200001d5                 ??         ??
        200001d6                 ??         ??
        200001d7                 ??         ??
        200001d8                 ??         ??
        200001d9                 ??         ??
        200001da                 ??         ??
        200001db                 ??         ??
        200001dc                 ??         ??
        200001dd                 ??         ??
        200001de                 ??         ??
        200001df                 ??         ??
        200001e0                 ??         ??
        200001e1                 ??         ??
        200001e2                 ??         ??
        200001e3                 ??         ??
        200001e4                 ??         ??
        200001e5                 ??         ??
        200001e6                 ??         ??
        200001e7                 ??         ??
        200001e8                 ??         ??
        200001e9                 ??         ??
        200001ea                 ??         ??
        200001eb                 ??         ??
        200001ec                 ??         ??
        200001ed                 ??         ??
        200001ee                 ??         ??
        200001ef                 ??         ??
        200001f0                 ??         ??
        200001f1                 ??         ??
        200001f2                 ??         ??
        200001f3                 ??         ??
        200001f4                 ??         ??
        200001f5                 ??         ??
        200001f6                 ??         ??
        200001f7                 ??         ??
        200001f8                 ??         ??
        200001f9                 ??         ??
        200001fa                 ??         ??
        200001fb                 ??         ??
        200001fc                 ??         ??
        200001fd                 ??         ??
        200001fe                 ??         ??
        200001ff                 ??         ??
        20000200                 ??         ??
        20000201                 ??         ??
        20000202                 ??         ??
        20000203                 ??         ??
        20000204                 ??         ??
        20000205                 ??         ??
        20000206                 ??         ??
        20000207                 ??         ??
        20000208                 ??         ??
        20000209                 ??         ??
        2000020a                 ??         ??
        2000020b                 ??         ??
        2000020c                 ??         ??
        2000020d                 ??         ??
        2000020e                 ??         ??
        2000020f                 ??         ??
        20000210                 ??         ??
        20000211                 ??         ??
        20000212                 ??         ??
        20000213                 ??         ??
        20000214                 ??         ??
        20000215                 ??         ??
        20000216                 ??         ??
        20000217                 ??         ??
        20000218                 ??         ??
        20000219                 ??         ??
        2000021a                 ??         ??
        2000021b                 ??         ??
        2000021c                 ??         ??
        2000021d                 ??         ??
        2000021e                 ??         ??
        2000021f                 ??         ??
        20000220                 ??         ??
        20000221                 ??         ??
        20000222                 ??         ??
        20000223                 ??         ??
        20000224                 ??         ??
        20000225                 ??         ??
        20000226                 ??         ??
        20000227                 ??         ??
        20000228                 ??         ??
        20000229                 ??         ??
        2000022a                 ??         ??
        2000022b                 ??         ??
        2000022c                 ??         ??
        2000022d                 ??         ??
        2000022e                 ??         ??
        2000022f                 ??         ??
        20000230                 ??         ??
        20000231                 ??         ??
        20000232                 ??         ??
        20000233                 ??         ??
        20000234                 ??         ??
        20000235                 ??         ??
        20000236                 ??         ??
        20000237                 ??         ??
        20000238                 ??         ??
        20000239                 ??         ??
        2000023a                 ??         ??
        2000023b                 ??         ??
        2000023c                 ??         ??
        2000023d                 ??         ??
        2000023e                 ??         ??
        2000023f                 ??         ??
        20000240                 ??         ??
        20000241                 ??         ??
        20000242                 ??         ??
        20000243                 ??         ??
        20000244                 ??         ??
        20000245                 ??         ??
        20000246                 ??         ??
        20000247                 ??         ??
        20000248                 ??         ??
        20000249                 ??         ??
        2000024a                 ??         ??
        2000024b                 ??         ??
        2000024c                 ??         ??
        2000024d                 ??         ??
        2000024e                 ??         ??
        2000024f                 ??         ??
        20000250                 ??         ??
        20000251                 ??         ??
        20000252                 ??         ??
        20000253                 ??         ??
        20000254                 ??         ??
        20000255                 ??         ??
        20000256                 ??         ??
        20000257                 ??         ??
        20000258                 ??         ??
        20000259                 ??         ??
        2000025a                 ??         ??
        2000025b                 ??         ??
        2000025c                 ??         ??
        2000025d                 ??         ??
        2000025e                 ??         ??
        2000025f                 ??         ??
        20000260                 ??         ??
        20000261                 ??         ??
        20000262                 ??         ??
        20000263                 ??         ??
        20000264                 ??         ??
        20000265                 ??         ??
        20000266                 ??         ??
        20000267                 ??         ??
        20000268                 ??         ??
        20000269                 ??         ??
        2000026a                 ??         ??
        2000026b                 ??         ??
        2000026c                 ??         ??
        2000026d                 ??         ??
        2000026e                 ??         ??
        2000026f                 ??         ??
        20000270                 ??         ??
        20000271                 ??         ??
        20000272                 ??         ??
        20000273                 ??         ??
        20000274                 ??         ??
        20000275                 ??         ??
        20000276                 ??         ??
        20000277                 ??         ??
        20000278                 ??         ??
        20000279                 ??         ??
        2000027a                 ??         ??
        2000027b                 ??         ??
        2000027c                 ??         ??
        2000027d                 ??         ??
        2000027e                 ??         ??
        2000027f                 ??         ??
        20000280                 ??         ??
        20000281                 ??         ??
        20000282                 ??         ??
        20000283                 ??         ??
        20000284                 ??         ??
        20000285                 ??         ??
        20000286                 ??         ??
        20000287                 ??         ??
        20000288                 ??         ??
        20000289                 ??         ??
        2000028a                 ??         ??
        2000028b                 ??         ??
        2000028c                 ??         ??
        2000028d                 ??         ??
        2000028e                 ??         ??
        2000028f                 ??         ??
        20000290                 ??         ??
        20000291                 ??         ??
        20000292                 ??         ??
        20000293                 ??         ??
        20000294                 ??         ??
        20000295                 ??         ??
        20000296                 ??         ??
        20000297                 ??         ??
        20000298                 ??         ??
        20000299                 ??         ??
        2000029a                 ??         ??
        2000029b                 ??         ??
        2000029c                 ??         ??
        2000029d                 ??         ??
        2000029e                 ??         ??
        2000029f                 ??         ??
        200002a0                 ??         ??
        200002a1                 ??         ??
        200002a2                 ??         ??
        200002a3                 ??         ??
        200002a4                 ??         ??
        200002a5                 ??         ??
        200002a6                 ??         ??
        200002a7                 ??         ??
        200002a8                 ??         ??
        200002a9                 ??         ??
        200002aa                 ??         ??
        200002ab                 ??         ??
        200002ac                 ??         ??
        200002ad                 ??         ??
        200002ae                 ??         ??
        200002af                 ??         ??
        200002b0                 ??         ??
        200002b1                 ??         ??
        200002b2                 ??         ??
        200002b3                 ??         ??
        200002b4                 ??         ??
        200002b5                 ??         ??
        200002b6                 ??         ??
        200002b7                 ??         ??
        200002b8                 ??         ??
        200002b9                 ??         ??
        200002ba                 ??         ??
        200002bb                 ??         ??
        200002bc                 ??         ??
        200002bd                 ??         ??
        200002be                 ??         ??
        200002bf                 ??         ??
        200002c0                 ??         ??
        200002c1                 ??         ??
        200002c2                 ??         ??
        200002c3                 ??         ??
        200002c4                 ??         ??
        200002c5                 ??         ??
        200002c6                 ??         ??
        200002c7                 ??         ??
        200002c8                 ??         ??
        200002c9                 ??         ??
        200002ca                 ??         ??
        200002cb                 ??         ??
        200002cc                 ??         ??
        200002cd                 ??         ??
        200002ce                 ??         ??
        200002cf                 ??         ??
        200002d0                 ??         ??
        200002d1                 ??         ??
        200002d2                 ??         ??
        200002d3                 ??         ??
        200002d4                 ??         ??
        200002d5                 ??         ??
        200002d6                 ??         ??
        200002d7                 ??         ??
        200002d8                 ??         ??
        200002d9                 ??         ??
        200002da                 ??         ??
        200002db                 ??         ??
        200002dc                 ??         ??
        200002dd                 ??         ??
        200002de                 ??         ??
        200002df                 ??         ??
        200002e0                 ??         ??
        200002e1                 ??         ??
        200002e2                 ??         ??
        200002e3                 ??         ??
        200002e4                 ??         ??
        200002e5                 ??         ??
        200002e6                 ??         ??
        200002e7                 ??         ??
        200002e8                 ??         ??
        200002e9                 ??         ??
        200002ea                 ??         ??
        200002eb                 ??         ??
        200002ec                 ??         ??
        200002ed                 ??         ??
        200002ee                 ??         ??
        200002ef                 ??         ??
        200002f0                 ??         ??
        200002f1                 ??         ??
        200002f2                 ??         ??
        200002f3                 ??         ??
        200002f4                 ??         ??
        200002f5                 ??         ??
        200002f6                 ??         ??
        200002f7                 ??         ??
        200002f8                 ??         ??
        200002f9                 ??         ??
        200002fa                 ??         ??
        200002fb                 ??         ??
        200002fc                 ??         ??
        200002fd                 ??         ??
        200002fe                 ??         ??
        200002ff                 ??         ??
        20000300                 ??         ??
        20000301                 ??         ??
        20000302                 ??         ??
        20000303                 ??         ??
        20000304                 ??         ??
        20000305                 ??         ??
        20000306                 ??         ??
        20000307                 ??         ??
        20000308                 ??         ??
        20000309                 ??         ??
        2000030a                 ??         ??
        2000030b                 ??         ??
        2000030c                 ??         ??
        2000030d                 ??         ??
        2000030e                 ??         ??
        2000030f                 ??         ??
        20000310                 ??         ??
        20000311                 ??         ??
        20000312                 ??         ??
        20000313                 ??         ??
        20000314                 ??         ??
        20000315                 ??         ??
        20000316                 ??         ??
        20000317                 ??         ??
        20000318                 ??         ??
        20000319                 ??         ??
        2000031a                 ??         ??
        2000031b                 ??         ??
        2000031c                 ??         ??
        2000031d                 ??         ??
        2000031e                 ??         ??
        2000031f                 ??         ??
        20000320                 ??         ??
        20000321                 ??         ??
        20000322                 ??         ??
        20000323                 ??         ??
        20000324                 ??         ??
        20000325                 ??         ??
        20000326                 ??         ??
        20000327                 ??         ??
        20000328                 ??         ??
        20000329                 ??         ??
        2000032a                 ??         ??
        2000032b                 ??         ??
        2000032c                 ??         ??
        2000032d                 ??         ??
        2000032e                 ??         ??
        2000032f                 ??         ??
        20000330                 ??         ??
        20000331                 ??         ??
        20000332                 ??         ??
        20000333                 ??         ??
        20000334                 ??         ??
        20000335                 ??         ??
        20000336                 ??         ??
        20000337                 ??         ??
        20000338                 ??         ??
        20000339                 ??         ??
        2000033a                 ??         ??
        2000033b                 ??         ??
        2000033c                 ??         ??
        2000033d                 ??         ??
        2000033e                 ??         ??
        2000033f                 ??         ??
        20000340                 ??         ??
        20000341                 ??         ??
        20000342                 ??         ??
        20000343                 ??         ??
        20000344                 ??         ??
        20000345                 ??         ??
        20000346                 ??         ??
        20000347                 ??         ??
        20000348                 ??         ??
        20000349                 ??         ??
        2000034a                 ??         ??
        2000034b                 ??         ??
        2000034c                 ??         ??
        2000034d                 ??         ??
        2000034e                 ??         ??
        2000034f                 ??         ??
        20000350                 ??         ??
        20000351                 ??         ??
        20000352                 ??         ??
        20000353                 ??         ??
        20000354                 ??         ??
        20000355                 ??         ??
        20000356                 ??         ??
        20000357                 ??         ??
        20000358                 ??         ??
        20000359                 ??         ??
        2000035a                 ??         ??
        2000035b                 ??         ??
        2000035c                 ??         ??
        2000035d                 ??         ??
        2000035e                 ??         ??
        2000035f                 ??         ??
        20000360                 ??         ??
        20000361                 ??         ??
        20000362                 ??         ??
        20000363                 ??         ??
        20000364                 ??         ??
        20000365                 ??         ??
        20000366                 ??         ??
        20000367                 ??         ??
        20000368                 ??         ??
        20000369                 ??         ??
        2000036a                 ??         ??
        2000036b                 ??         ??
        2000036c                 ??         ??
        2000036d                 ??         ??
        2000036e                 ??         ??
        2000036f                 ??         ??
        20000370                 ??         ??
        20000371                 ??         ??
        20000372                 ??         ??
        20000373                 ??         ??
        20000374                 ??         ??
        20000375                 ??         ??
        20000376                 ??         ??
        20000377                 ??         ??
        20000378                 ??         ??
        20000379                 ??         ??
        2000037a                 ??         ??
        2000037b                 ??         ??
        2000037c                 ??         ??
        2000037d                 ??         ??
        2000037e                 ??         ??
        2000037f                 ??         ??
        20000380                 ??         ??
        20000381                 ??         ??
        20000382                 ??         ??
        20000383                 ??         ??
        20000384                 ??         ??
        20000385                 ??         ??
        20000386                 ??         ??
        20000387                 ??         ??
        20000388                 ??         ??
        20000389                 ??         ??
        2000038a                 ??         ??
        2000038b                 ??         ??
        2000038c                 ??         ??
        2000038d                 ??         ??
        2000038e                 ??         ??
        2000038f                 ??         ??
        20000390                 ??         ??
        20000391                 ??         ??
        20000392                 ??         ??
        20000393                 ??         ??
        20000394                 ??         ??
        20000395                 ??         ??
        20000396                 ??         ??
        20000397                 ??         ??
        20000398                 ??         ??
        20000399                 ??         ??
        2000039a                 ??         ??
        2000039b                 ??         ??
        2000039c                 ??         ??
        2000039d                 ??         ??
        2000039e                 ??         ??
        2000039f                 ??         ??
        200003a0                 ??         ??
        200003a1                 ??         ??
        200003a2                 ??         ??
        200003a3                 ??         ??
        200003a4                 ??         ??
        200003a5                 ??         ??
        200003a6                 ??         ??
        200003a7                 ??         ??
        200003a8                 ??         ??
        200003a9                 ??         ??
        200003aa                 ??         ??
        200003ab                 ??         ??
        200003ac                 ??         ??
        200003ad                 ??         ??
        200003ae                 ??         ??
        200003af                 ??         ??
        200003b0                 ??         ??
        200003b1                 ??         ??
        200003b2                 ??         ??
        200003b3                 ??         ??
        200003b4                 ??         ??
        200003b5                 ??         ??
        200003b6                 ??         ??
        200003b7                 ??         ??
        200003b8                 ??         ??
        200003b9                 ??         ??
        200003ba                 ??         ??
        200003bb                 ??         ??
        200003bc                 ??         ??
        200003bd                 ??         ??
        200003be                 ??         ??
        200003bf                 ??         ??
        200003c0                 ??         ??
        200003c1                 ??         ??
        200003c2                 ??         ??
        200003c3                 ??         ??
        200003c4                 ??         ??
        200003c5                 ??         ??
        200003c6                 ??         ??
        200003c7                 ??         ??
        200003c8                 ??         ??
        200003c9                 ??         ??
        200003ca                 ??         ??
        200003cb                 ??         ??
        200003cc                 ??         ??
        200003cd                 ??         ??
        200003ce                 ??         ??
        200003cf                 ??         ??
        200003d0                 ??         ??
        200003d1                 ??         ??
        200003d2                 ??         ??
        200003d3                 ??         ??
        200003d4                 ??         ??
        200003d5                 ??         ??
        200003d6                 ??         ??
        200003d7                 ??         ??
        200003d8                 ??         ??
        200003d9                 ??         ??
        200003da                 ??         ??
        200003db                 ??         ??
        200003dc                 ??         ??
        200003dd                 ??         ??
        200003de                 ??         ??
        200003df                 ??         ??
        200003e0                 ??         ??
        200003e1                 ??         ??
        200003e2                 ??         ??
        200003e3                 ??         ??
        200003e4                 ??         ??
        200003e5                 ??         ??
        200003e6                 ??         ??
        200003e7                 ??         ??
        200003e8                 ??         ??
        200003e9                 ??         ??
        200003ea                 ??         ??
        200003eb                 ??         ??
        200003ec                 ??         ??
        200003ed                 ??         ??
        200003ee                 ??         ??
        200003ef                 ??         ??
        200003f0                 ??         ??
        200003f1                 ??         ??
        200003f2                 ??         ??
        200003f3                 ??         ??
        200003f4                 ??         ??
        200003f5                 ??         ??
        200003f6                 ??         ??
        200003f7                 ??         ??
        200003f8                 ??         ??
        200003f9                 ??         ??
        200003fa                 ??         ??
        200003fb                 ??         ??
        200003fc                 ??         ??
        200003fd                 ??         ??
        200003fe                 ??         ??
        200003ff                 ??         ??
        20000400                 ??         ??
        20000401                 ??         ??
        20000402                 ??         ??
        20000403                 ??         ??
        20000404                 ??         ??
        20000405                 ??         ??
        20000406                 ??         ??
        20000407                 ??         ??
        20000408                 ??         ??
        20000409                 ??         ??
        2000040a                 ??         ??
        2000040b                 ??         ??
        2000040c                 ??         ??
        2000040d                 ??         ??
        2000040e                 ??         ??
        2000040f                 ??         ??
        20000410                 ??         ??
        20000411                 ??         ??
        20000412                 ??         ??
        20000413                 ??         ??
        20000414                 ??         ??
        20000415                 ??         ??
        20000416                 ??         ??
        20000417                 ??         ??
        20000418                 ??         ??
        20000419                 ??         ??
        2000041a                 ??         ??
        2000041b                 ??         ??
        2000041c                 ??         ??
        2000041d                 ??         ??
        2000041e                 ??         ??
        2000041f                 ??         ??
        20000420                 ??         ??
        20000421                 ??         ??
        20000422                 ??         ??
        20000423                 ??         ??
        20000424                 ??         ??
        20000425                 ??         ??
        20000426                 ??         ??
        20000427                 ??         ??
        20000428                 ??         ??
        20000429                 ??         ??
        2000042a                 ??         ??
        2000042b                 ??         ??
        2000042c                 ??         ??
        2000042d                 ??         ??
        2000042e                 ??         ??
        2000042f                 ??         ??
        20000430                 ??         ??
        20000431                 ??         ??
        20000432                 ??         ??
        20000433                 ??         ??
        20000434                 ??         ??
        20000435                 ??         ??
        20000436                 ??         ??
        20000437                 ??         ??
        20000438                 ??         ??
        20000439                 ??         ??
        2000043a                 ??         ??
        2000043b                 ??         ??
        2000043c                 ??         ??
        2000043d                 ??         ??
        2000043e                 ??         ??
        2000043f                 ??         ??
        20000440                 ??         ??
        20000441                 ??         ??
        20000442                 ??         ??
        20000443                 ??         ??
        20000444                 ??         ??
        20000445                 ??         ??
        20000446                 ??         ??
        20000447                 ??         ??
        20000448                 ??         ??
        20000449                 ??         ??
        2000044a                 ??         ??
        2000044b                 ??         ??
        2000044c                 ??         ??
        2000044d                 ??         ??
        2000044e                 ??         ??
        2000044f                 ??         ??
        20000450                 ??         ??
        20000451                 ??         ??
        20000452                 ??         ??
        20000453                 ??         ??
        20000454                 ??         ??
        20000455                 ??         ??
        20000456                 ??         ??
        20000457                 ??         ??
        20000458                 ??         ??
        20000459                 ??         ??
        2000045a                 ??         ??
        2000045b                 ??         ??
        2000045c                 ??         ??
        2000045d                 ??         ??
        2000045e                 ??         ??
        2000045f                 ??         ??
        20000460                 ??         ??
        20000461                 ??         ??
        20000462                 ??         ??
        20000463                 ??         ??
        20000464                 ??         ??
        20000465                 ??         ??
        20000466                 ??         ??
        20000467                 ??         ??
        20000468                 ??         ??
        20000469                 ??         ??
        2000046a                 ??         ??
        2000046b                 ??         ??
        2000046c                 ??         ??
        2000046d                 ??         ??
        2000046e                 ??         ??
        2000046f                 ??         ??
        20000470                 ??         ??
        20000471                 ??         ??
        20000472                 ??         ??
        20000473                 ??         ??
        20000474                 ??         ??
        20000475                 ??         ??
        20000476                 ??         ??
        20000477                 ??         ??
        20000478                 ??         ??
        20000479                 ??         ??
        2000047a                 ??         ??
        2000047b                 ??         ??
        2000047c                 ??         ??
        2000047d                 ??         ??
        2000047e                 ??         ??
        2000047f                 ??         ??
        20000480                 ??         ??
        20000481                 ??         ??
        20000482                 ??         ??
        20000483                 ??         ??
        20000484                 ??         ??
        20000485                 ??         ??
        20000486                 ??         ??
        20000487                 ??         ??
        20000488                 ??         ??
        20000489                 ??         ??
        2000048a                 ??         ??
        2000048b                 ??         ??
        2000048c                 ??         ??
        2000048d                 ??         ??
        2000048e                 ??         ??
        2000048f                 ??         ??
        20000490                 ??         ??
        20000491                 ??         ??
        20000492                 ??         ??
        20000493                 ??         ??
        20000494                 ??         ??
        20000495                 ??         ??
        20000496                 ??         ??
        20000497                 ??         ??
        20000498                 ??         ??
        20000499                 ??         ??
        2000049a                 ??         ??
        2000049b                 ??         ??
        2000049c                 ??         ??
        2000049d                 ??         ??
        2000049e                 ??         ??
        2000049f                 ??         ??
        200004a0                 ??         ??
        200004a1                 ??         ??
        200004a2                 ??         ??
        200004a3                 ??         ??
        200004a4                 ??         ??
        200004a5                 ??         ??
        200004a6                 ??         ??
        200004a7                 ??         ??
        200004a8                 ??         ??
        200004a9                 ??         ??
        200004aa                 ??         ??
        200004ab                 ??         ??
        200004ac                 ??         ??
        200004ad                 ??         ??
        200004ae                 ??         ??
        200004af                 ??         ??
        200004b0                 ??         ??
        200004b1                 ??         ??
        200004b2                 ??         ??
        200004b3                 ??         ??
        200004b4                 ??         ??
        200004b5                 ??         ??
        200004b6                 ??         ??
        200004b7                 ??         ??
        200004b8                 ??         ??
        200004b9                 ??         ??
        200004ba                 ??         ??
        200004bb                 ??         ??
        200004bc                 ??         ??
        200004bd                 ??         ??
        200004be                 ??         ??
        200004bf                 ??         ??
        200004c0                 ??         ??
        200004c1                 ??         ??
        200004c2                 ??         ??
        200004c3                 ??         ??
        200004c4                 ??         ??
        200004c5                 ??         ??
        200004c6                 ??         ??
        200004c7                 ??         ??
        200004c8                 ??         ??
        200004c9                 ??         ??
        200004ca                 ??         ??
        200004cb                 ??         ??
        200004cc                 ??         ??
        200004cd                 ??         ??
        200004ce                 ??         ??
        200004cf                 ??         ??
        200004d0                 ??         ??
        200004d1                 ??         ??
        200004d2                 ??         ??
        200004d3                 ??         ??
        200004d4                 ??         ??
        200004d5                 ??         ??
        200004d6                 ??         ??
        200004d7                 ??         ??
        200004d8                 ??         ??
        200004d9                 ??         ??
        200004da                 ??         ??
        200004db                 ??         ??
        200004dc                 ??         ??
        200004dd                 ??         ??
        200004de                 ??         ??
        200004df                 ??         ??
        200004e0                 ??         ??
        200004e1                 ??         ??
        200004e2                 ??         ??
        200004e3                 ??         ??
        200004e4                 ??         ??
        200004e5                 ??         ??
        200004e6                 ??         ??
        200004e7                 ??         ??
        200004e8                 ??         ??
        200004e9                 ??         ??
        200004ea                 ??         ??
        200004eb                 ??         ??
        200004ec                 ??         ??
        200004ed                 ??         ??
        200004ee                 ??         ??
        200004ef                 ??         ??
        200004f0                 ??         ??
        200004f1                 ??         ??
        200004f2                 ??         ??
        200004f3                 ??         ??
        200004f4                 ??         ??
        200004f5                 ??         ??
        200004f6                 ??         ??
        200004f7                 ??         ??
        200004f8                 ??         ??
        200004f9                 ??         ??
        200004fa                 ??         ??
        200004fb                 ??         ??
        200004fc                 ??         ??
        200004fd                 ??         ??
        200004fe                 ??         ??
        200004ff                 ??         ??
        20000500                 ??         ??
        20000501                 ??         ??
        20000502                 ??         ??
        20000503                 ??         ??
        20000504                 ??         ??
        20000505                 ??         ??
        20000506                 ??         ??
        20000507                 ??         ??
        20000508                 ??         ??
        20000509                 ??         ??
        2000050a                 ??         ??
        2000050b                 ??         ??
        2000050c                 ??         ??
        2000050d                 ??         ??
        2000050e                 ??         ??
        2000050f                 ??         ??
        20000510                 ??         ??
        20000511                 ??         ??
        20000512                 ??         ??
        20000513                 ??         ??
        20000514                 ??         ??
        20000515                 ??         ??
        20000516                 ??         ??
        20000517                 ??         ??
        20000518                 ??         ??
        20000519                 ??         ??
        2000051a                 ??         ??
        2000051b                 ??         ??
        2000051c                 ??         ??
        2000051d                 ??         ??
        2000051e                 ??         ??
        2000051f                 ??         ??
        20000520                 ??         ??
        20000521                 ??         ??
        20000522                 ??         ??
        20000523                 ??         ??
        20000524                 ??         ??
        20000525                 ??         ??
        20000526                 ??         ??
        20000527                 ??         ??
        20000528                 ??         ??
        20000529                 ??         ??
        2000052a                 ??         ??
        2000052b                 ??         ??
        2000052c                 ??         ??
        2000052d                 ??         ??
        2000052e                 ??         ??
        2000052f                 ??         ??
        20000530                 ??         ??
        20000531                 ??         ??
        20000532                 ??         ??
        20000533                 ??         ??
        20000534                 ??         ??
        20000535                 ??         ??
        20000536                 ??         ??
        20000537                 ??         ??
        20000538                 ??         ??
        20000539                 ??         ??
        2000053a                 ??         ??
        2000053b                 ??         ??
        2000053c                 ??         ??
        2000053d                 ??         ??
        2000053e                 ??         ??
        2000053f                 ??         ??
        20000540                 ??         ??
        20000541                 ??         ??
        20000542                 ??         ??
        20000543                 ??         ??
        20000544                 ??         ??
        20000545                 ??         ??
        20000546                 ??         ??
        20000547                 ??         ??
        20000548                 ??         ??
        20000549                 ??         ??
        2000054a                 ??         ??
        2000054b                 ??         ??
        2000054c                 ??         ??
        2000054d                 ??         ??
        2000054e                 ??         ??
        2000054f                 ??         ??
        20000550                 ??         ??
        20000551                 ??         ??
        20000552                 ??         ??
        20000553                 ??         ??
        20000554                 ??         ??
        20000555                 ??         ??
        20000556                 ??         ??
        20000557                 ??         ??
        20000558                 ??         ??
        20000559                 ??         ??
        2000055a                 ??         ??
        2000055b                 ??         ??
        2000055c                 ??         ??
        2000055d                 ??         ??
        2000055e                 ??         ??
        2000055f                 ??         ??
        20000560                 ??         ??
        20000561                 ??         ??
        20000562                 ??         ??
        20000563                 ??         ??
        20000564                 ??         ??
        20000565                 ??         ??
        20000566                 ??         ??
        20000567                 ??         ??
        20000568                 ??         ??
        20000569                 ??         ??
        2000056a                 ??         ??
        2000056b                 ??         ??
        2000056c                 ??         ??
        2000056d                 ??         ??
        2000056e                 ??         ??
        2000056f                 ??         ??
        20000570                 ??         ??
        20000571                 ??         ??
        20000572                 ??         ??
        20000573                 ??         ??
        20000574                 ??         ??
        20000575                 ??         ??
        20000576                 ??         ??
        20000577                 ??         ??
        20000578                 ??         ??
        20000579                 ??         ??
        2000057a                 ??         ??
        2000057b                 ??         ??
        2000057c                 ??         ??
        2000057d                 ??         ??
        2000057e                 ??         ??
        2000057f                 ??         ??
        20000580                 ??         ??
        20000581                 ??         ??
        20000582                 ??         ??
        20000583                 ??         ??
        20000584                 ??         ??
        20000585                 ??         ??
        20000586                 ??         ??
        20000587                 ??         ??
        20000588                 ??         ??
        20000589                 ??         ??
        2000058a                 ??         ??
        2000058b                 ??         ??
        2000058c                 ??         ??
        2000058d                 ??         ??
        2000058e                 ??         ??
        2000058f                 ??         ??
        20000590                 ??         ??
        20000591                 ??         ??
        20000592                 ??         ??
        20000593                 ??         ??
        20000594                 ??         ??
        20000595                 ??         ??
        20000596                 ??         ??
        20000597                 ??         ??
        20000598                 ??         ??
        20000599                 ??         ??
        2000059a                 ??         ??
        2000059b                 ??         ??
        2000059c                 ??         ??
        2000059d                 ??         ??
        2000059e                 ??         ??
        2000059f                 ??         ??
        200005a0                 ??         ??
        200005a1                 ??         ??
        200005a2                 ??         ??
        200005a3                 ??         ??
        200005a4                 ??         ??
        200005a5                 ??         ??
        200005a6                 ??         ??
        200005a7                 ??         ??
        200005a8                 ??         ??
        200005a9                 ??         ??
        200005aa                 ??         ??
        200005ab                 ??         ??
        200005ac                 ??         ??
        200005ad                 ??         ??
        200005ae                 ??         ??
        200005af                 ??         ??
        200005b0                 ??         ??
        200005b1                 ??         ??
        200005b2                 ??         ??
        200005b3                 ??         ??
        200005b4                 ??         ??
        200005b5                 ??         ??
        200005b6                 ??         ??
        200005b7                 ??         ??
        200005b8                 ??         ??
        200005b9                 ??         ??
        200005ba                 ??         ??
        200005bb                 ??         ??
        200005bc                 ??         ??
        200005bd                 ??         ??
        200005be                 ??         ??
        200005bf                 ??         ??
        200005c0                 ??         ??
        200005c1                 ??         ??
        200005c2                 ??         ??
        200005c3                 ??         ??
        200005c4                 ??         ??
        200005c5                 ??         ??
        200005c6                 ??         ??
        200005c7                 ??         ??
        200005c8                 ??         ??
        200005c9                 ??         ??
        200005ca                 ??         ??
        200005cb                 ??         ??
        200005cc                 ??         ??
        200005cd                 ??         ??
        200005ce                 ??         ??
        200005cf                 ??         ??
        200005d0                 ??         ??
        200005d1                 ??         ??
        200005d2                 ??         ??
        200005d3                 ??         ??
        200005d4                 ??         ??
        200005d5                 ??         ??
        200005d6                 ??         ??
        200005d7                 ??         ??
        200005d8                 ??         ??
        200005d9                 ??         ??
        200005da                 ??         ??
        200005db                 ??         ??
        200005dc                 ??         ??
        200005dd                 ??         ??
        200005de                 ??         ??
        200005df                 ??         ??
        200005e0                 ??         ??
        200005e1                 ??         ??
        200005e2                 ??         ??
        200005e3                 ??         ??
        200005e4                 ??         ??
        200005e5                 ??         ??
        200005e6                 ??         ??
        200005e7                 ??         ??
        200005e8                 ??         ??
        200005e9                 ??         ??
        200005ea                 ??         ??
        200005eb                 ??         ??
        200005ec                 ??         ??
        200005ed                 ??         ??
        200005ee                 ??         ??
        200005ef                 ??         ??
        200005f0                 ??         ??
        200005f1                 ??         ??
        200005f2                 ??         ??
        200005f3                 ??         ??
        200005f4                 ??         ??
        200005f5                 ??         ??
        200005f6                 ??         ??
        200005f7                 ??         ??
        200005f8                 ??         ??
        200005f9                 ??         ??
        200005fa                 ??         ??
        200005fb                 ??         ??
        200005fc                 ??         ??
        200005fd                 ??         ??
        200005fe                 ??         ??
        200005ff                 ??         ??
        20000600                 ??         ??
        20000601                 ??         ??
        20000602                 ??         ??
        20000603                 ??         ??
        20000604                 ??         ??
        20000605                 ??         ??
        20000606                 ??         ??
        20000607                 ??         ??
        20000608                 ??         ??
        20000609                 ??         ??
        2000060a                 ??         ??
        2000060b                 ??         ??
        2000060c                 ??         ??
        2000060d                 ??         ??
        2000060e                 ??         ??
        2000060f                 ??         ??
        20000610                 ??         ??
        20000611                 ??         ??
        20000612                 ??         ??
        20000613                 ??         ??
        20000614                 ??         ??
        20000615                 ??         ??
        20000616                 ??         ??
        20000617                 ??         ??
        20000618                 ??         ??
        20000619                 ??         ??
        2000061a                 ??         ??
        2000061b                 ??         ??
        2000061c                 ??         ??
        2000061d                 ??         ??
        2000061e                 ??         ??
        2000061f                 ??         ??
        20000620                 ??         ??
        20000621                 ??         ??
        20000622                 ??         ??
        20000623                 ??         ??
        20000624                 ??         ??
        20000625                 ??         ??
        20000626                 ??         ??
        20000627                 ??         ??
        20000628                 ??         ??
        20000629                 ??         ??
        2000062a                 ??         ??
        2000062b                 ??         ??
        2000062c                 ??         ??
        2000062d                 ??         ??
        2000062e                 ??         ??
        2000062f                 ??         ??
        20000630                 ??         ??
        20000631                 ??         ??
        20000632                 ??         ??
        20000633                 ??         ??
        20000634                 ??         ??
        20000635                 ??         ??
        20000636                 ??         ??
        20000637                 ??         ??
        20000638                 ??         ??
        20000639                 ??         ??
        2000063a                 ??         ??
        2000063b                 ??         ??
        2000063c                 ??         ??
        2000063d                 ??         ??
        2000063e                 ??         ??
        2000063f                 ??         ??
        20000640                 ??         ??
        20000641                 ??         ??
        20000642                 ??         ??
        20000643                 ??         ??
        20000644                 ??         ??
        20000645                 ??         ??
        20000646                 ??         ??
        20000647                 ??         ??
        20000648                 ??         ??
        20000649                 ??         ??
        2000064a                 ??         ??
        2000064b                 ??         ??
        2000064c                 ??         ??
        2000064d                 ??         ??
        2000064e                 ??         ??
        2000064f                 ??         ??
        20000650                 ??         ??
        20000651                 ??         ??
        20000652                 ??         ??
        20000653                 ??         ??
        20000654                 ??         ??
        20000655                 ??         ??
        20000656                 ??         ??
        20000657                 ??         ??
        20000658                 ??         ??
        20000659                 ??         ??
        2000065a                 ??         ??
        2000065b                 ??         ??
        2000065c                 ??         ??
        2000065d                 ??         ??
        2000065e                 ??         ??
        2000065f                 ??         ??
        20000660                 ??         ??
        20000661                 ??         ??
        20000662                 ??         ??
        20000663                 ??         ??
        20000664                 ??         ??
        20000665                 ??         ??
        20000666                 ??         ??
        20000667                 ??         ??
        20000668                 ??         ??
        20000669                 ??         ??
        2000066a                 ??         ??
        2000066b                 ??         ??
        2000066c                 ??         ??
        2000066d                 ??         ??
        2000066e                 ??         ??
        2000066f                 ??         ??
        20000670                 ??         ??
        20000671                 ??         ??
        20000672                 ??         ??
        20000673                 ??         ??
        20000674                 ??         ??
        20000675                 ??         ??
        20000676                 ??         ??
        20000677                 ??         ??
        20000678                 ??         ??
        20000679                 ??         ??
        2000067a                 ??         ??
        2000067b                 ??         ??
        2000067c                 ??         ??
        2000067d                 ??         ??
        2000067e                 ??         ??
        2000067f                 ??         ??
        20000680                 ??         ??
        20000681                 ??         ??
        20000682                 ??         ??
        20000683                 ??         ??
        20000684                 ??         ??
        20000685                 ??         ??
        20000686                 ??         ??
        20000687                 ??         ??
        20000688                 ??         ??
        20000689                 ??         ??
        2000068a                 ??         ??
        2000068b                 ??         ??
        2000068c                 ??         ??
        2000068d                 ??         ??
        2000068e                 ??         ??
        2000068f                 ??         ??
        20000690                 ??         ??
        20000691                 ??         ??
        20000692                 ??         ??
        20000693                 ??         ??
        20000694                 ??         ??
        20000695                 ??         ??
        20000696                 ??         ??
        20000697                 ??         ??
                             //
                             // .ARM.attributes 
                             // SHT_ARM_ATTRIBUTES [not-loaded]
                             // .ARM.attributes::00000000-.ARM.attributes::0000002f
                             //
             assume spsr = <UNKNOWN>
                             DAT_.ARM.attributes__00000000                   XREF[1]:     _elfSectionHeaders::00000214(*)  
     s::00000000 41              ??         41h    A
     s::00000001 2f              ??         2Fh    /
     s::00000002 00              ??         00h
     s::00000003 00              ??         00h
     s::00000004 00              ??         00h
     s::00000005 61              ??         61h    a
     s::00000006 65              ??         65h    e
     s::00000007 61              ??         61h    a
     s::00000008 62              ??         62h    b
     s::00000009 69              ??         69h    i
     s::0000000a 00              ??         00h
     s::0000000b 01              ??         01h
     s::0000000c 25              ??         25h    %                                         ?  ->  .ARM.attributes::00000025
     s::0000000d 00              ??         00h
     s::0000000e 00              ??         00h
     s::0000000f 00              ??         00h
     s::00000010 05              ??         05h
     s::00000011 37              ??         37h    7
     s::00000012 45              ??         45h    E
     s::00000013 2d              ??         2Dh    -
     s::00000014 4d              ??         4Dh    M
     s::00000015 00              ??         00h
     s::00000016 06              ??         06h
     s::00000017 0d              ??         0Dh
     s::00000018 07              ??         07h
     s::00000019 4d              ??         4Dh    M
     s::0000001a 09              ??         09h
     s::0000001b 02              ??         02h
     s::0000001c 0a              ??         0Ah
     s::0000001d 06              ??         06h
     s::0000001e 12              ??         12h
     s::0000001f 04              ??         04h
     s::00000020 14              ??         14h
     s::00000021 01              ??         01h
     s::00000022 15              ??         15h
     s::00000023 01              ??         01h
     s::00000024 17              ??         17h
     s::00000025 03              ??         03h
     s::00000026 18              ??         18h
     s::00000027 01              ??         01h
     s::00000028 1a              ??         1Ah
     s::00000029 01              ??         01h
     s::0000002a 1b              ??         1Bh
     s::0000002b 01              ??         01h
     s::0000002c 1c              ??         1Ch
     s::0000002d 01              ??         01h
     s::0000002e 22              ??         22h    "
     s::0000002f 01              ??         01h
                             //
                             // .comment 
                             // SHT_PROGBITS [not-loaded]
                             // .comment::00000000-.comment::00000042
                             //
                             ElfComment[0]                                   XREF[1]:     _elfSectionHeaders::0000023c(*)  
     t::00000000 47 43 43        utf8       u8"GCC: (GNU Tools for STM32 12.3.rel1.2024061
                 3a 20 28 
                 47 4e 55 
                             //
                             // .debug_frame 
                             // SHT_PROGBITS [not-loaded]
                             // .debug_frame::00000000-.debug_frame::000000ab
                             //
                             **************************************************************
                             * Common Information Entry                                   *
                             **************************************************************
                             cie_.debug_frame::00000000                      XREF[2]:     .debug_frame::00000014(*), 
                                                                                          _elfSectionHeaders::00000264(*)  
     e::00000000 0c 00 00 00     ddw        Ch                                               (CIE) Length
     e::00000004 ff ff ff ff     ddw        FFFFFFFFh                                        (CIE) ID
     e::00000008 01              db         1h                                               (CIE) Version
     e::00000009 00              ds         ""                                               (CIE) Augmentation String
     e::0000000a 02              uleb128    2h                                               (CIE) Code Alignment
     e::0000000b 7c              sleb128    -4h                                              (CIE) Data Alignment
     e::0000000c 0e              db         Eh                                               (CIE) Return Address Register Co
     e::0000000d 0c 0d 00        db[3]                                                       (CIE) Initial Instructions
                             **************************************************************
                             * Frame Descriptor Entry                                     *
                             **************************************************************
                             fde_.debug_frame::00000010
     e::00000010 0c 00 00 00     ddw        Ch                                               (FDE) Length
     e::00000014 00 00 00 00     ddw        cie_.debug_frame::00000000                       (FDE) CIE Reference Pointer 
     e::00000018 06 14 00 08     ddw        memset                                           (FDE) PcBegin
     e::0000001c 10 00 00 00     ddw        10h                                              (FDE) PcRange
                             **************************************************************
                             * Common Information Entry                                   *
                             **************************************************************
                             cie_.debug_frame::00000020                      XREF[1]:     .debug_frame::00000034(*)  
     e::00000020 0c 00 00 00     ddw        Ch                                               (CIE) Length
     e::00000024 ff ff ff ff     ddw        FFFFFFFFh                                        (CIE) ID
     e::00000028 01              db         1h                                               (CIE) Version
     e::00000029 00              ds         ""                                               (CIE) Augmentation String
     e::0000002a 02              uleb128    2h                                               (CIE) Code Alignment
     e::0000002b 7c              sleb128    -4h                                              (CIE) Data Alignment
     e::0000002c 0e              db         Eh                                               (CIE) Return Address Register Co
     e::0000002d 0c 0d 00        db[3]                                                       (CIE) Initial Instructions
                             **************************************************************
                             * Frame Descriptor Entry                                     *
                             **************************************************************
                             fde_.debug_frame::00000030
     e::00000030 18 00 00 00     ddw        18h                                              (FDE) Length
     e::00000034 20 00 00 00     ddw        cie_.debug_frame::00000020                       (FDE) CIE Reference Pointer 
     e::00000038 18 14 00 08     ddw        __libc_init_array                                (FDE) PcBegin
     e::0000003c 48 00 00 00     ddw        48h                                              (FDE) PcRange
     e::00000040 41 0e 10        db[12]                                                      (FDE) Call Frame Instructions
                 84 04 85 
                 03 86 02 
                             **************************************************************
                             * Common Information Entry                                   *
                             **************************************************************
                             cie_.debug_frame::0000004c                      XREF[1]:     .debug_frame::00000060(*)  
     e::0000004c 0c 00 00 00     ddw        Ch                                               (CIE) Length
     e::00000050 ff ff ff ff     ddw        FFFFFFFFh                                        (CIE) ID
     e::00000054 01              db         1h                                               (CIE) Version
     e::00000055 00              ds         ""                                               (CIE) Augmentation String
     e::00000056 02              uleb128    2h                                               (CIE) Code Alignment
     e::00000057 7c              sleb128    -4h                                              (CIE) Data Alignment
     e::00000058 0e              db         Eh                                               (CIE) Return Address Register Co
     e::00000059 0c 0d 00        db[3]                                                       (CIE) Initial Instructions
                             **************************************************************
                             * Frame Descriptor Entry                                     *
                             **************************************************************
                             fde_.debug_frame::0000005c
     e::0000005c 18 00 00 00     ddw        18h                                              (FDE) Length
     e::00000060 4c 00 00 00     ddw        cie_.debug_frame::0000004c                       (FDE) CIE Reference Pointer 
     e::00000064 c8 01 00 08     ddw        __aeabi_uldivmod                                 (FDE) PcBegin
     e::00000068 30 00 00 00     ddw        30h                                              (FDE) PcRange
     e::0000006c 50 0e 10        db[12]                                                      (FDE) Call Frame Instructions
                 8e 03 47 
                 ce 0e 10 
                             **************************************************************
                             * Common Information Entry                                   *
                             **************************************************************
                             cie_.debug_frame::00000078                      XREF[1]:     .debug_frame::0000008c(*)  
     e::00000078 0c 00 00 00     ddw        Ch                                               (CIE) Length
     e::0000007c ff ff ff ff     ddw        FFFFFFFFh                                        (CIE) ID
     e::00000080 01              db         1h                                               (CIE) Version
     e::00000081 00              ds         ""                                               (CIE) Augmentation String
     e::00000082 02              uleb128    2h                                               (CIE) Code Alignment
     e::00000083 7c              sleb128    -4h                                              (CIE) Data Alignment
     e::00000084 0e              db         Eh                                               (CIE) Return Address Register Co
     e::00000085 0c 0d 00        db[3]                                                       (CIE) Initial Instructions
                             **************************************************************
                             * Frame Descriptor Entry                                     *
                             **************************************************************
                             fde_.debug_frame::00000088
     e::00000088 20 00 00 00     ddw        20h                                              (FDE) Length
     e::0000008c 78 00 00 00     ddw        cie_.debug_frame::00000078                       (FDE) CIE Reference Pointer 
     e::00000090 f8 01 00 08     ddw        __udivmoddi4                                     (FDE) PcBegin
     e::00000094 ba 02 00 00     ddw        2BAh                                             (FDE) PcRange
     e::00000098 42 0e 20        db[20]                                                      (FDE) Call Frame Instructions
                 84 08 85 
                 07 86 06 
                             //
                             // .shstrtab 
                             // SHT_STRTAB [not-loaded]
                             // .shstrtab::00000000-.shstrtab::000000b6
                             //
                             DAT_.shstrtab__00000000                         XREF[1]:     _elfSectionHeaders::000002dc(*)  
     b::00000000 00              ??         00h
     b::00000001 2e 73 79        utf8       u8".symtab"
                 6d 74 61 
                 62 00
     b::00000009 2e 73 74        utf8       u8".strtab"
                 72 74 61 
                 62 00
     b::00000011 2e 73 68        utf8       u8".shstrtab"
                 73 74 72 
                 74 61 62 00
     b::0000001b 2e 69 73        utf8       u8".isr_vector"
                 72 5f 76 
                 65 63 74 
     b::00000027 2e 74 65        utf8       u8".text"
                 78 74 00
     b::0000002d 2e 72 6f        utf8       u8".rodata"
                 64 61 74 
                 61 00
     b::00000035 2e 41 52        utf8       u8".ARM.extab"
                 4d 2e 65 
                 78 74 61 
     b::00000040 2e 41 52        utf8       u8".ARM"
                 4d 00
     b::00000045 2e 70 72        utf8       u8".preinit_array"
                 65 69 6e 
                 69 74 5f 
     b::00000054 2e 69 6e        utf8       u8".init_array"
                 69 74 5f 
                 61 72 72 
     b::00000060 2e 66 69        utf8       u8".fini_array"
                 6e 69 5f 
                 61 72 72 
     b::0000006c 2e 64 61        utf8       u8".data"
                 74 61 00
     b::00000072 2e 63 63        utf8       u8".ccmram"
                 6d 72 61 
                 6d 00
     b::0000007a 2e 62 73        utf8       u8".bss"
                 73 00
     b::0000007f 2e 5f 75        utf8       u8"._user_heap_stack"
                 73 65 72 
                 5f 68 65 
     b::00000091 2e 41 52        utf8       u8".ARM.attributes"
                 4d 2e 61 
                 74 74 72 
     b::000000a1 2e 63 6f        utf8       u8".comment"
                 6d 6d 65 
                 6e 74 00
     b::000000aa 2e 64 65        utf8       u8".debug_frame"
                 62 75 67 
                 5f 66 72 
                             //
                             // .strtab 
                             // SHT_STRTAB [not-loaded]
                             // .strtab::00000000-.strtab::00000c40
                             //
                             DAT_.strtab__00000000                           XREF[1]:     _elfSectionHeaders::000002b4(*)  
     b::00000000 00              ??         00h
     b::00000001 73 74 61        utf8       u8"startup_stm32f407vgtx.o"
                 72 74 75 
                 70 5f 73 
     b::00000019 24 74 00        utf8       u8"$t"
     b::0000001c 4c 6f 6f        utf8       u8"LoopCopyDataInit"
                 70 43 6f 
                 70 79 44 
     b::0000002d 4c 6f 6f        utf8       u8"LoopFillZerobss"
                 70 46 69 
                 6c 6c 5a 
     b::0000003d 49 6e 66        utf8       u8"Infinite_Loop"
                 69 6e 69 
                 74 65 5f 
     b::0000004b 24 64 00        utf8       u8"$d"
     b::0000004e 63 72 74        utf8       u8"crtbegin.o"
                 62 65 67 
                 69 6e 2e 
     b::00000059 5f 5f 45        utf8       u8"__EH_FRAME_BEGIN__"
                 48 5f 46 
                 52 41 4d 
     b::0000006c 5f 5f 64        utf8       u8"__do_global_dtors_aux"
                 6f 5f 67 
                 6c 6f 62 
     b::00000082 63 6f 6d        utf8       u8"completed.1"
                 70 6c 65 
                 74 65 64 
     b::0000008e 5f 5f 64        utf8       u8"__do_global_dtors_aux_fini_array_entry"
                 6f 5f 67 
                 6c 6f 62 
     b::000000b5 66 72 61        utf8       u8"frame_dummy"
                 6d 65 5f 
                 64 75 6d 
     b::000000c1 6f 62 6a        utf8       u8"object.0"
                 65 63 74 
                 2e 30 00
     b::000000ca 5f 5f 66        utf8       u8"__frame_dummy_init_array_entry"
                 72 61 6d 
                 65 5f 64 
     b::000000e9 5f 61 65        utf8       u8"_aeabi_uldivmod.o"
                 61 62 69 
                 5f 75 6c 
     b::000000fb 5f 75 64        utf8       u8"_udivmoddi4.o"
                 69 76 6d 
                 6f 64 64 
     b::00000109 5f 64 76        utf8       u8"_dvmd_tls.o"
                 6d 64 5f 
                 74 6c 73 
     b::00000115 6d 61 69        utf8       u8"main.c"
                 6e 2e 63 00
     b::0000011c 62 72 75        utf8       u8"bruh.0"
                 68 2e 30 00
     b::00000123 73 74 6d        utf8       u8"stm32f4xx_hal_msp.c"
                 33 32 66 
                 34 78 78 
     b::00000137 73 74 6d        utf8       u8"stm32f4xx_it.c"
                 33 32 66 
                 34 78 78 
     b::00000146 73 79 73        utf8       u8"system_stm32f4xx.c"
                 74 65 6d 
                 5f 73 74 
     b::00000159 73 74 6d        utf8       u8"stm32f4xx_hal.c"
                 33 32 66 
                 34 78 78 
     b::00000169 73 74 6d        utf8       u8"stm32f4xx_hal_cortex.c"
                 33 32 66 
                 34 78 78 
     b::00000180 73 74 6d        utf8       u8"stm32f4xx_hal_gpio.c"
                 33 32 66 
                 34 78 78 
     b::00000195 73 74 6d        utf8       u8"stm32f4xx_hal_rcc.c"
                 33 32 66 
                 34 78 78 
     b::000001a9 73 74 6d        utf8       u8"stm32f4xx_hal_uart.c"
                 33 32 66 
                 34 78 78 
     b::000001be 55 41 52        utf8       u8"UART_EndRxTransfer"
                 54 5f 45 
                 6e 64 52 
     b::000001d1 55 41 52        utf8       u8"UART_SetConfig"
                 54 5f 53 
                 65 74 43 
     b::000001e0 55 41 52        utf8       u8"UART_WaitOnFlagUntilTimeout.constprop.0"
                 54 5f 57 
                 61 69 74 
     b::00000208 6c 69 62        utf8       u8"libc_a-memset.o"
                 63 5f 61 
                 2d 6d 65 
     b::00000218 6c 69 62        utf8       u8"libc_a-init.o"
                 63 5f 61 
                 2d 69 6e 
     b::00000226 63 72 74        utf8       u8"crti.o"
                 69 2e 6f 00
     b::0000022d 63 72 74        utf8       u8"crtn.o"
                 6e 2e 6f 00
     b::00000234 5f 5f 69        utf8       u8"__init_array_end"
                 6e 69 74 
                 5f 61 72 
     b::00000245 5f 5f 70        utf8       u8"__preinit_array_end"
                 72 65 69 
                 6e 69 74 
     b::00000259 5f 5f 69        utf8       u8"__init_array_start"
                 6e 69 74 
                 5f 61 72 
     b::0000026c 5f 5f 70        utf8       u8"__preinit_array_start"
                 72 65 69 
                 6e 69 74 
     b::00000282 52 54 43        utf8       u8"RTC_Alarm_IRQHandler"
                 5f 41 6c 
                 61 72 6d 
     b::00000297 48 41 53        utf8       u8"HASH_RNG_IRQHandler"
                 48 5f 52 
                 4e 47 5f 
     b::000002ab 45 58 54        utf8       u8"EXTI2_IRQHandler"
                 49 32 5f 
                 49 52 51 
     b::000002bc 41 50 42        utf8       u8"APBPrescTable"
                 50 72 65 
                 73 63 54 
     b::000002ca 54 49 4d        utf8       u8"TIM8_CC_IRQHandler"
                 38 5f 43 
                 43 5f 49 
     b::000002dd 44 65 62        utf8       u8"DebugMon_Handler"
                 75 67 4d 
                 6f 6e 5f 
     b::000002ee 48 41 4c        utf8       u8"HAL_RCC_GetPCLK1Freq"
                 5f 52 43 
                 43 5f 47 
     b::00000303 48 41 4c        utf8       u8"HAL_NVIC_SetPriority"
                 5f 4e 56 
                 49 43 5f 
     b::00000318 54 49 4d        utf8       u8"TIM1_CC_IRQHandler"
                 31 5f 43 
                 43 5f 49 
     b::0000032b 48 41 4c        utf8       u8"HAL_RCC_GetPCLK2Freq"
                 5f 52 43 
                 43 5f 47 
     b::00000340 44 4d 41        utf8       u8"DMA2_Stream5_IRQHandler"
                 32 5f 53 
                 74 72 65 
     b::00000358 48 61 72        utf8       u8"HardFault_Handler"
                 64 46 61 
                 75 6c 74 
     b::0000036a 44 4d 41        utf8       u8"DMA1_Stream5_IRQHandler"
                 31 5f 53 
                 74 72 65 
     b::00000382 5f 4d 69        utf8       u8"_Min_Stack_Size"
                 6e 5f 53 
                 74 61 63 
     b::00000392 53 79 73        utf8       u8"SysTick_Handler"
                 54 69 63 
                 6b 5f 48 
     b::000003a2 48 41 4c        utf8       u8"HAL_GPIO_WritePin"
                 5f 47 50 
                 49 4f 5f 
     b::000003b4 50 56 44        utf8       u8"PVD_IRQHandler"
                 5f 49 52 
                 51 48 61 
     b::000003c3 53 44 49        utf8       u8"SDIO_IRQHandler"
                 4f 5f 49 
                 52 51 48 
     b::000003d3 54 41 4d        utf8       u8"TAMP_STAMP_IRQHandler"
                 50 5f 53 
                 54 41 4d 
     b::000003e9 5f 73 69        utf8       u8"_sidata"
                 64 61 74 
                 61 00
     b::000003f1 50 65 6e        utf8       u8"PendSV_Handler"
                 64 53 56 
                 5f 48 61 
     b::00000400 4e 4d 49        utf8       u8"NMI_Handler"
                 5f 48 61 
                 6e 64 6c 
     b::0000040c 5f 5f 65        utf8       u8"__exidx_end"
                 78 69 64 
                 78 5f 65 
     b::00000418 43 41 4e        utf8       u8"CAN2_RX1_IRQHandler"
                 32 5f 52 
                 58 31 5f 
     b::0000042c 45 58 54        utf8       u8"EXTI3_IRQHandler"
                 49 33 5f 
                 49 52 51 
     b::0000043d 48 41 4c        utf8       u8"HAL_RCC_GetSysClockFreq"
                 5f 52 43 
                 43 5f 47 
     b::00000455 54 49 4d        utf8       u8"TIM8_TRG_COM_TIM14_IRQHandler"
                 38 5f 54 
                 52 47 5f 
     b::00000473 48 41 4c        utf8       u8"HAL_MspInit"
                 5f 4d 73 
                 70 49 6e 
     b::0000047f 54 49 4d        utf8       u8"TIM1_UP_TIM10_IRQHandler"
                 31 5f 55 
                 50 5f 54 
     b::00000498 5f 65 74        utf8       u8"_etext"
                 65 78 74 00
     b::0000049f 5f 73 62        utf8       u8"_sbss"
                 73 73 00
     b::000004a5 54 49 4d        utf8       u8"TIM8_UP_TIM13_IRQHandler"
                 38 5f 55 
                 50 5f 54 
     b::000004be 49 32 43        utf8       u8"I2C3_ER_IRQHandler"
                 33 5f 45 
                 52 5f 49 
     b::000004d1 48 41 4c        utf8       u8"HAL_GPIO_Init"
                 5f 47 50 
                 49 4f 5f 
     b::000004df 45 58 54        utf8       u8"EXTI0_IRQHandler"
                 49 30 5f 
                 49 52 51 
     b::000004f0 49 32 43        utf8       u8"I2C2_EV_IRQHandler"
                 32 5f 45 
                 56 5f 49 
     b::00000503 5f 5f 61        utf8       u8"__aeabi_uldivmod"
                 65 61 62 
                 69 5f 75 
     b::00000514 44 4d 41        utf8       u8"DMA1_Stream2_IRQHandler"
                 31 5f 53 
                 74 72 65 
     b::0000052c 43 41 4e        utf8       u8"CAN1_RX0_IRQHandler"
                 31 5f 52 
                 58 30 5f 
     b::00000540 46 50 55        utf8       u8"FPU_IRQHandler"
                 5f 49 52 
                 51 48 61 
     b::0000054f 53 79 73        utf8       u8"SystemCoreClock"
                 74 65 6d 
                 43 6f 72 
     b::0000055f 4f 54 47        utf8       u8"OTG_HS_WKUP_IRQHandler"
                 5f 48 53 
                 5f 57 4b 
     b::00000576 75 77 54        utf8       u8"uwTickFreq"
                 69 63 6b 
                 46 72 65 
     b::00000581 55 73 61        utf8       u8"UsageFault_Handler"
                 67 65 46 
                 61 75 6c 
     b::00000594 43 41 4e        utf8       u8"CAN2_SCE_IRQHandler"
                 32 5f 53 
                 43 45 5f 
     b::000005a8 44 4d 41        utf8       u8"DMA2_Stream2_IRQHandler"
                 32 5f 53 
                 74 72 65 
     b::000005c0 5f 5f 62        utf8       u8"__bss_start__"
                 73 73 5f 
                 73 74 61 
     b::000005ce 5f 73 64        utf8       u8"_sdata"
                 61 74 61 00
     b::000005d5 53 50 49        utf8       u8"SPI1_IRQHandler"
                 31 5f 49 
                 52 51 48 
     b::000005e5 5f 5f 75        utf8       u8"__udivmoddi4"
                 64 69 76 
                 6d 6f 64 
     b::000005f2 54 49 4d        utf8       u8"TIM6_DAC_IRQHandler"
                 36 5f 44 
                 41 43 5f 
     b::00000606 54 49 4d        utf8       u8"TIM1_BRK_TIM9_IRQHandler"
                 31 5f 42 
                 52 4b 5f 
     b::0000061f 44 43 4d        utf8       u8"DCMI_IRQHandler"
                 49 5f 49 
                 52 51 48 
     b::0000062f 75 77 54        utf8       u8"uwTick"
                 69 63 6b 00
     b::00000636 53 79 73        utf8       u8"SystemClock_Config"
                 74 65 6d 
                 43 6c 6f 
     b::00000649 43 41 4e        utf8       u8"CAN2_RX0_IRQHandler"
                 32 5f 52 
                 58 30 5f 
     b::0000065d 48 41 4c        utf8       u8"HAL_SYSTICK_Config"
                 5f 53 59 
                 53 54 49 
     b::00000670 5f 5f 65        utf8       u8"__exidx_start"
                 78 69 64 
                 78 5f 73 
     b::0000067e 44 4d 41        utf8       u8"DMA2_Stream3_IRQHandler"
                 32 5f 53 
                 74 72 65 
     b::00000696 5f 5f 6c        utf8       u8"__libc_init_array"
                 69 62 63 
                 5f 69 6e 
     b::000006a8 55 53 41        utf8       u8"USART6_IRQHandler"
                 52 54 36 
                 5f 49 52 
     b::000006ba 5f 69 6e        utf8       u8"_init"
                 69 74 00
     b::000006c0 55 53 41        utf8       u8"USART3_IRQHandler"
                 52 54 33 
                 5f 49 52 
     b::000006d2 5f 65 62        utf8       u8"_ebss"
                 73 73 00
     b::000006d8 52 65 73        utf8       u8"Reset_Handler"
                 65 74 5f 
                 48 61 6e 
     b::000006e6 43 41 4e        utf8       u8"CAN1_RX1_IRQHandler"
                 31 5f 52 
                 58 31 5f 
     b::000006fa 55 41 52        utf8       u8"UART5_IRQHandler"
                 54 35 5f 
                 49 52 51 
     b::0000070b 44 4d 41        utf8       u8"DMA2_Stream0_IRQHandler"
                 32 5f 53 
                 74 72 65 
     b::00000723 75 77 54        utf8       u8"uwTickPrio"
                 69 63 6b 
                 50 72 69 
     b::0000072e 48 41 4c        utf8       u8"HAL_Init"
                 5f 49 6e 
                 69 74 00
     b::00000737 54 49 4d        utf8       u8"TIM4_IRQHandler"
                 34 5f 49 
                 52 51 48 
     b::00000747 49 32 43        utf8       u8"I2C1_EV_IRQHandler"
                 31 5f 45 
                 56 5f 49 
     b::0000075a 44 4d 41        utf8       u8"DMA1_Stream6_IRQHandler"
                 31 5f 53 
                 74 72 65 
     b::00000772 44 4d 41        utf8       u8"DMA1_Stream1_IRQHandler"
                 31 5f 53 
                 74 72 65 
     b::0000078a 55 41 52        utf8       u8"UART4_IRQHandler"
                 54 34 5f 
                 49 52 51 
     b::0000079b 5f 5f 62        utf8       u8"__bss_end__"
                 73 73 5f 
                 65 6e 64 
     b::000007a7 54 49 4d        utf8       u8"TIM3_IRQHandler"
                 33 5f 49 
                 52 51 48 
     b::000007b7 52 43 43        utf8       u8"RCC_IRQHandler"
                 5f 49 52 
                 51 48 61 
     b::000007c6 54 49 4d        utf8       u8"TIM8_BRK_TIM12_IRQHandler"
                 38 5f 42 
                 52 4b 5f 
     b::000007e0 5f 4d 69        utf8       u8"_Min_Heap_Size"
                 6e 5f 48 
                 65 61 70 
     b::000007ef 44 65 66        utf8       u8"Default_Handler"
                 61 75 6c 
                 74 5f 48 
     b::000007ff 41 48 42        utf8       u8"AHBPrescTable"
                 50 72 65 
                 73 63 54 
     b::0000080d 45 58 54        utf8       u8"EXTI15_10_IRQHandler"
                 49 31 35 
                 5f 31 30 
     b::00000822 41 44 43        utf8       u8"ADC_IRQHandler"
                 5f 49 52 
                 51 48 61 
     b::00000831 48 41 4c        utf8       u8"HAL_RCC_ClockConfig"
                 5f 52 43 
                 43 5f 43 
     b::00000845 48 41 4c        utf8       u8"HAL_NVIC_SetPriorityGrouping"
                 5f 4e 56 
                 49 43 5f 
     b::00000862 44 4d 41        utf8       u8"DMA1_Stream7_IRQHandler"
                 31 5f 53 
                 74 72 65 
     b::0000087a 54 49 4d        utf8       u8"TIM7_IRQHandler"
                 37 5f 49 
                 52 51 48 
     b::0000088a 43 41 4e        utf8       u8"CAN2_TX_IRQHandler"
                 32 5f 54 
                 58 5f 49 
     b::0000089d 54 49 4d        utf8       u8"TIM5_IRQHandler"
                 35 5f 49 
                 52 51 48 
     b::000008ad 44 4d 41        utf8       u8"DMA2_Stream7_IRQHandler"
                 32 5f 53 
                 74 72 65 
     b::000008c5 49 32 43        utf8       u8"I2C3_EV_IRQHandler"
                 33 5f 45 
                 56 5f 49 
     b::000008d8 5f 5f 61        utf8       u8"__aeabi_ldiv0"
                 65 61 62 
                 69 5f 6c 
     b::000008e6 45 58 54        utf8       u8"EXTI9_5_IRQHandler"
                 49 39 5f 
                 35 5f 49 
     b::000008f9 48 41 4c        utf8       u8"HAL_UART_Transmit"
                 5f 55 41 
                 52 54 5f 
     b::0000090b 52 54 43        utf8       u8"RTC_WKUP_IRQHandler"
                 5f 57 4b 
                 55 50 5f 
     b::0000091f 45 54 48        utf8       u8"ETH_WKUP_IRQHandler"
                 5f 57 4b 
                 55 50 5f 
     b::00000933 48 41 4c        utf8       u8"HAL_GetTick"
                 5f 47 65 
                 74 54 69 
     b::0000093f 53 50 49        utf8       u8"SPI2_IRQHandler"
                 32 5f 49 
                 52 51 48 
     b::0000094f 4f 54 47        utf8       u8"OTG_HS_EP1_IN_IRQHandler"
                 5f 48 53 
                 5f 45 50 
     b::00000968 6d 65 6d        utf8       u8"memset"
                 73 65 74 00
     b::0000096f 4d 65 6d        utf8       u8"MemManage_Handler"
                 4d 61 6e 
                 61 67 65 
     b::00000981 6d 61 69        utf8       u8"main"
                 6e 00
     b::00000986 44 4d 41        utf8       u8"DMA1_Stream0_IRQHandler"
                 31 5f 53 
                 74 72 65 
     b::0000099e 5f 73 69        utf8       u8"_siccmram"
                 63 63 6d 
                 72 61 6d 00
     b::000009a8 43 41 4e        utf8       u8"CAN1_TX_IRQHandler"
                 31 5f 54 
                 58 5f 49 
     b::000009bb 53 56 43        utf8       u8"SVC_Handler"
                 5f 48 61 
                 6e 64 6c 
     b::000009c7 45 58 54        utf8       u8"EXTI4_IRQHandler"
                 49 34 5f 
                 49 52 51 
     b::000009d8 53 79 73        utf8       u8"SystemInit"
                 74 65 6d 
                 49 6e 69 
     b::000009e3 5f 66 69        utf8       u8"_fini"
                 6e 69 00
     b::000009e9 48 41 4c        utf8       u8"HAL_UART_MspInit"
                 5f 55 41 
                 52 54 5f 
     b::000009fa 5f 65 63        utf8       u8"_eccmram"
                 63 6d 72 
                 61 6d 00
     b::00000a03 48 41 4c        utf8       u8"HAL_InitTick"
                 5f 49 6e 
                 69 74 54 
     b::00000a10 46 53 4d        utf8       u8"FSMC_IRQHandler"
                 43 5f 49 
                 52 51 48 
     b::00000a20 45 54 48        utf8       u8"ETH_IRQHandler"
                 5f 49 52 
                 51 48 61 
     b::00000a2f 48 41 4c        utf8       u8"HAL_IncTick"
                 5f 49 6e 
                 63 54 69 
     b::00000a3b 4f 54 47        utf8       u8"OTG_HS_EP1_OUT_IRQHandler"
                 5f 48 53 
                 5f 45 50 
     b::00000a55 57 57 44        utf8       u8"WWDG_IRQHandler"
                 47 5f 49 
                 52 51 48 
     b::00000a65 68 75 61        utf8       u8"huart4"
                 72 74 34 00
     b::00000a6c 54 49 4d        utf8       u8"TIM2_IRQHandler"
                 32 5f 49 
                 52 51 48 
     b::00000a7c 4f 54 47        utf8       u8"OTG_FS_WKUP_IRQHandler"
                 5f 46 53 
                 5f 57 4b 
     b::00000a93 54 49 4d        utf8       u8"TIM1_TRG_COM_TIM11_IRQHandler"
                 31 5f 54 
                 52 47 5f 
     b::00000ab1 4f 54 47        utf8       u8"OTG_HS_IRQHandler"
                 5f 48 53 
                 5f 49 52 
     b::00000ac3 5f 65 73        utf8       u8"_estack"
                 74 61 63 
                 6b 00
     b::00000acb 45 58 54        utf8       u8"EXTI1_IRQHandler"
                 49 31 5f 
                 49 52 51 
     b::00000adc 5f 65 64        utf8       u8"_edata"
                 61 74 61 00
     b::00000ae3 5f 73 63        utf8       u8"_sccmram"
                 63 6d 72 
                 61 6d 00
     b::00000aec 55 53 41        utf8       u8"USART2_IRQHandler"
                 52 54 32 
                 5f 49 52 
     b::00000afe 48 41 4c        utf8       u8"HAL_RCC_OscConfig"
                 5f 52 43 
                 43 5f 4f 
     b::00000b10 67 5f 70        utf8       u8"g_pfnVectors"
                 66 6e 56 
                 65 63 74 
     b::00000b1d 49 32 43        utf8       u8"I2C2_ER_IRQHandler"
                 32 5f 45 
                 52 5f 49 
     b::00000b30 44 4d 41        utf8       u8"DMA2_Stream1_IRQHandler"
                 32 5f 53 
                 74 72 65 
     b::00000b48 5f 5f 61        utf8       u8"__aeabi_idiv0"
                 65 61 62 
                 69 5f 69 
     b::00000b56 43 41 4e        utf8       u8"CAN1_SCE_IRQHandler"
                 31 5f 53 
                 43 45 5f 
     b::00000b6a 46 4c 41        utf8       u8"FLASH_IRQHandler"
                 53 48 5f 
                 49 52 51 
     b::00000b7b 44 4d 41        utf8       u8"DMA2_Stream4_IRQHandler"
                 32 5f 53 
                 74 72 65 
     b::00000b93 42 75 73        utf8       u8"BusFault_Handler"
                 46 61 75 
                 6c 74 5f 
     b::00000ba4 55 53 41        utf8       u8"USART1_IRQHandler"
                 52 54 31 
                 5f 49 52 
     b::00000bb6 4f 54 47        utf8       u8"OTG_FS_IRQHandler"
                 5f 46 53 
                 5f 49 52 
     b::00000bc8 53 50 49        utf8       u8"SPI3_IRQHandler"
                 33 5f 49 
                 52 51 48 
     b::00000bd8 44 4d 41        utf8       u8"DMA1_Stream4_IRQHandler"
                 31 5f 53 
                 74 72 65 
     b::00000bf0 48 41 4c        utf8       u8"HAL_UART_Init"
                 5f 55 41 
                 52 54 5f 
     b::00000bfe 49 32 43        utf8       u8"I2C1_ER_IRQHandler"
                 31 5f 45 
                 52 5f 49 
     b::00000c11 44 4d 41        utf8       u8"DMA2_Stream6_IRQHandler"
                 32 5f 53 
                 74 72 65 
     b::00000c29 44 4d 41        utf8       u8"DMA1_Stream3_IRQHandler"
                 31 5f 53 
                 74 72 65 
                             //
                             // .symtab 
                             // SHT_SYMTAB [not-loaded]
                             // .symtab::00000000-.symtab::000011df
                             //
                             Elf32_Sym_ARRAY_.symtab__00000000               XREF[1]:     _elfSectionHeaders::0000028c(*)  
     b::00000000 00 00 00        Elf32_Sy
                 00 00 00 
                 00 00 00 
                             //
                             // _elfHeader 
                             // Elf File Header
                             // _elfHeader::00000000-_elfHeader::00000033
                             //
     r::00000000 7f 45 4c        Elf32_Ehdr
                 46 01 01 
                 01 00 00 
                             //
                             // _elfProgramHeaders 
                             // Elf Program Headers
                             // _elfProgramHeaders::00000000-_elfProgramHeaders::0000005f
                             //
                             Elf32_Phdr_ARRAY__elfProgramHeaders__00000000   XREF[1]:     _elfHeader::0000001c(*)  
     s::00000000 01 00 00        Elf32_Ph                                                    PT_LOAD - Loadable segment
                 00 00 10 
                 00 00 00 
                             //
                             // _elfSectionHeaders 
                             // Elf Section Headers
                             // _elfSectionHeaders::00000000-_elfSectionHeaders::000002f7
                             //
                             Elf32_Shdr_ARRAY__elfSectionHeaders__00000000   XREF[1]:     _elfHeader::00000020(*)  
     s::00000000 00 00 00        Elf32_Sh                                                    SECTION0 - SHT_NULL
                 00 00 00 
                 00 00 00 
